EXPORTS 
	?$TSS0@?1??manage_caching_sizes@internal@Eigen@@YAXW4Action@3@PEA_J11@Z@4HA 	 DATA
	??_R0?AV?$_Iosb@H@std@@@8 	 DATA
	??_R0?AV?$basic_filebuf@DU?$char_traits@D@std@@@std@@@8 	 DATA
	??_R0?AV?$basic_ifstream@DU?$char_traits@D@std@@@std@@@8 	 DATA
	??_R0?AV?$basic_ios@DU?$char_traits@D@std@@@std@@@8 	 DATA
	??_R0?AV?$basic_iostream@DU?$char_traits@D@std@@@std@@@8 	 DATA
	??_R0?AV?$basic_istream@DU?$char_traits@D@std@@@std@@@8 	 DATA
	??_R0?AV?$basic_ostream@DU?$char_traits@D@std@@@std@@@8 	 DATA
	??_R0?AV?$basic_streambuf@DU?$char_traits@D@std@@@std@@@8 	 DATA
	??_R0?AV?$basic_stringbuf@DU?$char_traits@D@std@@V?$allocator@D@2@@std@@@8 	 DATA
	??_R0?AV?$basic_stringstream@DU?$char_traits@D@std@@V?$allocator@D@2@@std@@@8 	 DATA
	??_R0?AVAssertFailException@pwd@@@8 	 DATA
	??_R0?AVBaseException@pwd@@@8 	 DATA
	??_R0?AVNullPointerException@pwd@@@8 	 DATA
	??_R0?AVbad_alloc@std@@@8 	 DATA
	??_R0?AVbad_array_new_length@std@@@8 	 DATA
	??_R0?AVbad_cast@std@@@8 	 DATA
	??_R0?AVexception@std@@@8 	 DATA
	??_R0?AVios_base@std@@@8 	 DATA
	?_OptionsStorage@?1??__local_stdio_scanf_options@@9@4_KA 	 DATA
	?_Psave@?$_Facetptr@V?$codecvt@DDU_Mbstatet@@@std@@@std@@2PEBVfacet@locale@2@EB 	 DATA
	?_Stinit@?1??_Init@?$basic_filebuf@DU?$char_traits@D@std@@@std@@IEAAXPEAU_iobuf@@W4_Initfl@23@@Z@4U_Mbstatet@@A 	 DATA
	?m_cacheSizes@?1??manage_caching_sizes@internal@Eigen@@YAXW4Action@3@PEA_J11@Z@4UCacheSizes@23@A 	 DATA
	??$?0V?$Matrix@V?$complex@N@std@@$0?0$0?0$0A@$0?0$0?0@Eigen@@@?$PartialPivLU@V?$Matrix@V?$complex@N@std@@$0?0$0?0$0A@$0?0$0?0@Eigen@@@Eigen@@QEAA@AEBU?$EigenBase@V?$Matrix@V?$complex@N@std@@$0?0$0?0$0A@$0?0$0?0@Eigen@@@1@@Z
	??$?4U?$HessenbergDecompositionMatrixHReturnType@V?$Matrix@N$0?0$0?0$0A@$0?0$0?0@Eigen@@@internal@Eigen@@@?$MatrixBase@V?$Matrix@N$0?0$0?0$0A@$0?0$0?0@Eigen@@@Eigen@@QEAAAEAV?$Matrix@N$0?0$0?0$0A@$0?0$0?0@1@AEBV?$ReturnByValue@U?$HessenbergDecompositionMatrixHReturnType@V?$Matrix@N$0?0$0?0$0A@$0?0$0?0@Eigen@@@internal@Eigen@@@1@@Z
	??$?4V?$CwiseNullaryOp@U?$scalar_constant_op@N@internal@Eigen@@V?$Matrix@N$02$02$0A@$02$02@3@@Eigen@@@?$TriangularViewImpl@V?$Matrix@N$02$02$0A@$02$02@Eigen@@$09UDense@2@@Eigen@@QEAAAEAV?$TriangularView@V?$Matrix@N$02$02$0A@$02$02@Eigen@@$09@1@AEBV?$MatrixBase@V?$CwiseNullaryOp@U?$scalar_constant_op@N@internal@Eigen@@V?$Matrix@N$02$02$0A@$02$02@3@@Eigen@@@1@@Z
	??$?4V?$CwiseNullaryOp@U?$scalar_constant_op@N@internal@Eigen@@V?$Matrix@N$0?0$0?0$0A@$0?0$0?0@3@@Eigen@@@?$TriangularViewImpl@V?$Block@V?$Matrix@N$0?0$0?0$0A@$0?0$0?0@Eigen@@$0?0$0?0$0A@@Eigen@@$00UDense@2@@Eigen@@QEAAAEAV?$TriangularView@V?$Block@V?$Matrix@N$0?0$0?0$0A@$0?0$0?0@Eigen@@$0?0$0?0$0A@@Eigen@@$00@1@AEBV?$MatrixBase@V?$CwiseNullaryOp@U?$scalar_constant_op@N@internal@Eigen@@V?$Matrix@N$0?0$0?0$0A@$0?0$0?0@3@@Eigen@@@1@@Z
	??$?4V?$CwiseNullaryOp@U?$scalar_constant_op@N@internal@Eigen@@V?$Matrix@N$0?0$0?0$0A@$0?0$0?0@3@@Eigen@@@?$TriangularViewImpl@V?$Matrix@N$0?0$0?0$0A@$0?0$0?0@Eigen@@$09UDense@2@@Eigen@@QEAAAEAV?$TriangularView@V?$Matrix@N$0?0$0?0$0A@$0?0$0?0@Eigen@@$09@1@AEBV?$MatrixBase@V?$CwiseNullaryOp@U?$scalar_constant_op@N@internal@Eigen@@V?$Matrix@N$0?0$0?0$0A@$0?0$0?0@3@@Eigen@@@1@@Z
	??$?4V?$DiagonalWrapper@$$CBV?$CwiseBinaryOp@U?$scalar_product_op@NN@internal@Eigen@@$$CBV?$Matrix@N$0?0$00$0A@$0?0$00@3@$$CBV43@@Eigen@@@Eigen@@@?$SparseMatrixBase@V?$SparseMatrix@N$0A@H@Eigen@@@Eigen@@QEAAAEAV?$SparseMatrix@N$0A@H@1@AEBU?$EigenBase@V?$DiagonalWrapper@$$CBV?$CwiseBinaryOp@U?$scalar_product_op@NN@internal@Eigen@@$$CBV?$Matrix@N$0?0$00$0A@$0?0$00@3@$$CBV43@@Eigen@@@Eigen@@@1@@Z
	??$?4V?$PermutationMatrix@$01$01H@Eigen@@@?$MatrixBase@V?$Matrix@N$01$01$0A@$01$01@Eigen@@@Eigen@@QEAAAEAV?$Matrix@N$01$01$0A@$01$01@1@AEBU?$EigenBase@V?$PermutationMatrix@$01$01H@Eigen@@@1@@Z
	??$?4V?$Transpositions@$0?0$0?0H@Eigen@@@?$PermutationBase@V?$PermutationMatrix@$0?0$0?0H@Eigen@@@Eigen@@QEAAAEAV?$PermutationMatrix@$0?0$0?0H@1@AEBV?$TranspositionsBase@V?$Transpositions@$0?0$0?0H@Eigen@@@1@@Z
	??$?4V?$TriangularView@$$CBV?$Transpose@$$CBV?$Block@$$CBV?$Matrix@N$02$01$0A@$02$01@Eigen@@$0?0$0?0$0A@@Eigen@@@Eigen@@$00@Eigen@@@?$MatrixBase@V?$Matrix@N$01$01$0A@$01$01@Eigen@@@Eigen@@QEAAAEAV?$Matrix@N$01$01$0A@$01$01@1@AEBU?$EigenBase@V?$TriangularView@$$CBV?$Transpose@$$CBV?$Block@$$CBV?$Matrix@N$02$01$0A@$02$01@Eigen@@$0?0$0?0$0A@@Eigen@@@Eigen@@$00@Eigen@@@1@@Z
	??$?6DU?$char_traits@D@std@@V?$allocator@D@1@@std@@YAAEAV?$basic_ostream@DU?$char_traits@D@std@@@0@AEAV10@AEBV?$basic_string@DU?$char_traits@D@std@@V?$allocator@D@2@@0@@Z
	??$?6U?$char_traits@D@std@@@std@@YAAEAV?$basic_ostream@DU?$char_traits@D@std@@@0@AEAV10@D@Z
	??$?6U?$char_traits@D@std@@@std@@YAAEAV?$basic_ostream@DU?$char_traits@D@std@@@0@AEAV10@PEBD@Z
	??$?6V?$Transpose@V?$Matrix@N$02$00$0A@$02$00@Eigen@@@Eigen@@@?$DenseBase@V?$Matrix@N$01$02$0A@$01$02@Eigen@@@Eigen@@QEAA?AU?$CommaInitializer@V?$Matrix@N$01$02$0A@$01$02@Eigen@@@1@AEBV?$DenseBase@V?$Transpose@V?$Matrix@N$02$00$0A@$02$00@Eigen@@@Eigen@@@1@@Z
	??$?DV?$Block@$$CBV?$Matrix@N$02$01$0A@$02$01@Eigen@@$0?0$00$0A@@Eigen@@@?$MatrixBase@V?$Block@V?$Block@V?$Matrix@N$02$02$0A@$02$02@Eigen@@$0?0$0?0$0A@@Eigen@@$0?0$0?0$0A@@Eigen@@@Eigen@@QEBA?BV?$Product@V?$Block@V?$Block@V?$Matrix@N$02$02$0A@$02$02@Eigen@@$0?0$0?0$0A@@Eigen@@$0?0$0?0$0A@@Eigen@@V?$Block@$$CBV?$Matrix@N$02$01$0A@$02$01@Eigen@@$0?0$00$0A@@2@$0A@@1@AEBV?$MatrixBase@V?$Block@$$CBV?$Matrix@N$02$01$0A@$02$01@Eigen@@$0?0$00$0A@@Eigen@@@1@@Z
	??$?DV?$Block@$$CBV?$Matrix@N$0?0$0?0$0A@$0?0$0?0@Eigen@@$0?0$00$0A@@Eigen@@@?$MatrixBase@V?$Block@V?$Block@V?$Matrix@N$0?0$0?0$0A@$0?0$0?0@Eigen@@$0?0$0?0$0A@@Eigen@@$0?0$0?0$0A@@Eigen@@@Eigen@@QEBA?BV?$Product@V?$Block@V?$Block@V?$Matrix@N$0?0$0?0$0A@$0?0$0?0@Eigen@@$0?0$0?0$0A@@Eigen@@$0?0$0?0$0A@@Eigen@@V?$Block@$$CBV?$Matrix@N$0?0$0?0$0A@$0?0$0?0@Eigen@@$0?0$00$0A@@2@$0A@@1@AEBV?$MatrixBase@V?$Block@$$CBV?$Matrix@N$0?0$0?0$0A@$0?0$0?0@Eigen@@$0?0$00$0A@@Eigen@@@1@@Z
	??$?DV?$Block@V?$Block@V?$Matrix@N$02$01$0A@$02$01@Eigen@@$0?0$0?0$0A@@Eigen@@$0?0$0?0$0A@@Eigen@@@?$MatrixBase@V?$Transpose@$$CBV?$Block@V?$Block@V?$Matrix@N$02$01$0A@$02$01@Eigen@@$02$00$00@Eigen@@$0?0$00$0A@@Eigen@@@Eigen@@@Eigen@@QEBA?BV?$Product@V?$Transpose@$$CBV?$Block@V?$Block@V?$Matrix@N$02$01$0A@$02$01@Eigen@@$02$00$00@Eigen@@$0?0$00$0A@@Eigen@@@Eigen@@V?$Block@V?$Block@V?$Matrix@N$02$01$0A@$02$01@Eigen@@$0?0$0?0$0A@@Eigen@@$0?0$0?0$0A@@2@$0A@@1@AEBV?$MatrixBase@V?$Block@V?$Block@V?$Matrix@N$02$01$0A@$02$01@Eigen@@$0?0$0?0$0A@@Eigen@@$0?0$0?0$0A@@Eigen@@@1@@Z
	??$?DV?$Block@V?$Block@V?$Matrix@N$02$02$0A@$02$02@Eigen@@$0?0$0?0$0A@@Eigen@@$0?0$0?0$0A@@Eigen@@@?$MatrixBase@V?$Transpose@$$CBV?$Block@$$CBV?$Matrix@N$02$01$0A@$02$01@Eigen@@$0?0$00$0A@@Eigen@@@Eigen@@@Eigen@@QEBA?BV?$Product@V?$Transpose@$$CBV?$Block@$$CBV?$Matrix@N$02$01$0A@$02$01@Eigen@@$0?0$00$0A@@Eigen@@@Eigen@@V?$Block@V?$Block@V?$Matrix@N$02$02$0A@$02$02@Eigen@@$0?0$0?0$0A@@Eigen@@$0?0$0?0$0A@@2@$0A@@1@AEBV?$MatrixBase@V?$Block@V?$Block@V?$Matrix@N$02$02$0A@$02$02@Eigen@@$0?0$0?0$0A@@Eigen@@$0?0$0?0$0A@@Eigen@@@1@@Z
	??$?DV?$Block@V?$Block@V?$Matrix@N$0?0$0?0$0A@$0?0$0?0@Eigen@@$0?0$00$00@Eigen@@$0?0$00$0A@@Eigen@@@?$MatrixBase@V?$Block@V?$Block@V?$Matrix@N$0?0$0?0$0A@$0?0$0?0@Eigen@@$0?0$0?0$00@Eigen@@$0?0$0?0$0A@@Eigen@@@Eigen@@QEBA?BV?$Product@V?$Block@V?$Block@V?$Matrix@N$0?0$0?0$0A@$0?0$0?0@Eigen@@$0?0$0?0$00@Eigen@@$0?0$0?0$0A@@Eigen@@V?$Block@V?$Block@V?$Matrix@N$0?0$0?0$0A@$0?0$0?0@Eigen@@$0?0$00$00@Eigen@@$0?0$00$0A@@2@$0A@@1@AEBV?$MatrixBase@V?$Block@V?$Block@V?$Matrix@N$0?0$0?0$0A@$0?0$0?0@Eigen@@$0?0$00$00@Eigen@@$0?0$00$0A@@Eigen@@@1@@Z
	??$?DV?$Block@V?$Block@V?$Matrix@N$0?0$0?0$0A@$0?0$0?0@Eigen@@$0?0$00$00@Eigen@@$0?0$00$0A@@Eigen@@@?$MatrixBase@V?$Block@V?$Matrix@N$0?0$0?0$0A@$0?0$0?0@Eigen@@$0?0$0?0$00@Eigen@@@Eigen@@QEBA?BV?$Product@V?$Block@V?$Matrix@N$0?0$0?0$0A@$0?0$0?0@Eigen@@$0?0$0?0$00@Eigen@@V?$Block@V?$Block@V?$Matrix@N$0?0$0?0$0A@$0?0$0?0@Eigen@@$0?0$00$00@Eigen@@$0?0$00$0A@@2@$0A@@1@AEBV?$MatrixBase@V?$Block@V?$Block@V?$Matrix@N$0?0$0?0$0A@$0?0$0?0@Eigen@@$0?0$00$00@Eigen@@$0?0$00$0A@@Eigen@@@1@@Z
	??$?DV?$Block@V?$Block@V?$Matrix@N$0?0$0?0$0A@$0?0$0?0@Eigen@@$0?0$0?0$0A@@Eigen@@$00$0?0$0A@@Eigen@@@?$MatrixBase@V?$Transpose@$$CBV?$Matrix@N$00$00$0A@$00$00@Eigen@@@Eigen@@@Eigen@@QEBA?BV?$Product@V?$Transpose@$$CBV?$Matrix@N$00$00$0A@$00$00@Eigen@@@Eigen@@V?$Block@V?$Block@V?$Matrix@N$0?0$0?0$0A@$0?0$0?0@Eigen@@$0?0$0?0$0A@@Eigen@@$00$0?0$0A@@2@$0A@@1@AEBV?$MatrixBase@V?$Block@V?$Block@V?$Matrix@N$0?0$0?0$0A@$0?0$0?0@Eigen@@$0?0$0?0$0A@@Eigen@@$00$0?0$0A@@Eigen@@@1@@Z
	??$?DV?$Block@V?$Block@V?$Matrix@N$0?0$0?0$0A@$0?0$0?0@Eigen@@$0?0$0?0$0A@@Eigen@@$01$0?0$0A@@Eigen@@@?$MatrixBase@V?$Transpose@$$CBV?$Matrix@N$01$00$0A@$01$00@Eigen@@@Eigen@@@Eigen@@QEBA?BV?$Product@V?$Transpose@$$CBV?$Matrix@N$01$00$0A@$01$00@Eigen@@@Eigen@@V?$Block@V?$Block@V?$Matrix@N$0?0$0?0$0A@$0?0$0?0@Eigen@@$0?0$0?0$0A@@Eigen@@$01$0?0$0A@@2@$0A@@1@AEBV?$MatrixBase@V?$Block@V?$Block@V?$Matrix@N$0?0$0?0$0A@$0?0$0?0@Eigen@@$0?0$0?0$0A@@Eigen@@$01$0?0$0A@@Eigen@@@1@@Z
	??$?DV?$Block@V?$Block@V?$Matrix@N$0?0$0?0$0A@$0?0$0?0@Eigen@@$0?0$0?0$0A@@Eigen@@$0?0$0?0$0A@@Eigen@@@?$MatrixBase@V?$Transpose@$$CBV?$Block@$$CBV?$Matrix@N$0?0$0?0$0A@$0?0$0?0@Eigen@@$0?0$00$0A@@Eigen@@@Eigen@@@Eigen@@QEBA?BV?$Product@V?$Transpose@$$CBV?$Block@$$CBV?$Matrix@N$0?0$0?0$0A@$0?0$0?0@Eigen@@$0?0$00$0A@@Eigen@@@Eigen@@V?$Block@V?$Block@V?$Matrix@N$0?0$0?0$0A@$0?0$0?0@Eigen@@$0?0$0?0$0A@@Eigen@@$0?0$0?0$0A@@2@$0A@@1@AEBV?$MatrixBase@V?$Block@V?$Block@V?$Matrix@N$0?0$0?0$0A@$0?0$0?0@Eigen@@$0?0$0?0$0A@@Eigen@@$0?0$0?0$0A@@Eigen@@@1@@Z
	??$?DV?$Block@V?$Block@V?$Matrix@N$0?0$0?0$0A@$0?0$0?0@Eigen@@$0?0$0?0$0A@@Eigen@@$0?0$0?0$0A@@Eigen@@@?$MatrixBase@V?$Transpose@$$CBV?$Block@V?$Block@V?$Matrix@N$0?0$0?0$0A@$0?0$0?0@Eigen@@$0?0$00$00@Eigen@@$0?0$00$0A@@Eigen@@@Eigen@@@Eigen@@QEBA?BV?$Product@V?$Transpose@$$CBV?$Block@V?$Block@V?$Matrix@N$0?0$0?0$0A@$0?0$0?0@Eigen@@$0?0$00$00@Eigen@@$0?0$00$0A@@Eigen@@@Eigen@@V?$Block@V?$Block@V?$Matrix@N$0?0$0?0$0A@$0?0$0?0@Eigen@@$0?0$0?0$0A@@Eigen@@$0?0$0?0$0A@@2@$0A@@1@AEBV?$MatrixBase@V?$Block@V?$Block@V?$Matrix@N$0?0$0?0$0A@$0?0$0?0@Eigen@@$0?0$0?0$0A@@Eigen@@$0?0$0?0$0A@@Eigen@@@1@@Z
	??$?DV?$Block@V?$Block@V?$Ref@V?$Matrix@V?$complex@N@std@@$0?0$0?0$0A@$0?0$0?0@Eigen@@$0A@V?$OuterStride@$0?0@2@@Eigen@@$00$0?0$0A@@Eigen@@$00$0?0$0A@@Eigen@@@?$MatrixBase@V?$Block@V?$Block@V?$Ref@V?$Matrix@V?$complex@N@std@@$0?0$0?0$0A@$0?0$0?0@Eigen@@$0A@V?$OuterStride@$0?0@2@@Eigen@@$0?0$00$00@Eigen@@$0?0$00$0A@@Eigen@@@Eigen@@QEBA?BV?$Product@V?$Block@V?$Block@V?$Ref@V?$Matrix@V?$complex@N@std@@$0?0$0?0$0A@$0?0$0?0@Eigen@@$0A@V?$OuterStride@$0?0@2@@Eigen@@$0?0$00$00@Eigen@@$0?0$00$0A@@Eigen@@V?$Block@V?$Block@V?$Ref@V?$Matrix@V?$complex@N@std@@$0?0$0?0$0A@$0?0$0?0@Eigen@@$0A@V?$OuterStride@$0?0@2@@Eigen@@$00$0?0$0A@@Eigen@@$00$0?0$0A@@2@$0A@@1@AEBV?$MatrixBase@V?$Block@V?$Block@V?$Ref@V?$Matrix@V?$complex@N@std@@$0?0$0?0$0A@$0?0$0?0@Eigen@@$0A@V?$OuterStride@$0?0@2@@Eigen@@$00$0?0$0A@@Eigen@@$00$0?0$0A@@Eigen@@@1@@Z
	??$?DV?$DiagonalWrapper@$$CBV?$CwiseUnaryOp@U?$scalar_inverse_op@N@internal@Eigen@@$$CBV?$CwiseBinaryOp@U?$scalar_product_op@NN@internal@Eigen@@$$CBV?$CwiseNullaryOp@U?$scalar_constant_op@N@internal@Eigen@@$$CBV?$Matrix@N$0?0$00$0A@$0?0$00@3@@3@$$CBV?$Matrix@N$0?0$00$0A@$0?0$00@3@@3@@Eigen@@@Eigen@@@?$MatrixBase@V?$Matrix@N$0?0$0?0$0A@$0?0$0?0@Eigen@@@Eigen@@QEBA?BV?$Product@V?$Matrix@N$0?0$0?0$0A@$0?0$0?0@Eigen@@V?$DiagonalWrapper@$$CBV?$CwiseUnaryOp@U?$scalar_inverse_op@N@internal@Eigen@@$$CBV?$CwiseBinaryOp@U?$scalar_product_op@NN@internal@Eigen@@$$CBV?$CwiseNullaryOp@U?$scalar_constant_op@N@internal@Eigen@@$$CBV?$Matrix@N$0?0$00$0A@$0?0$00@3@@3@$$CBV?$Matrix@N$0?0$00$0A@$0?0$00@3@@3@@Eigen@@@2@$00@1@AEBV?$DiagonalBase@V?$DiagonalWrapper@$$CBV?$CwiseUnaryOp@U?$scalar_inverse_op@N@internal@Eigen@@$$CBV?$CwiseBinaryOp@U?$scalar_product_op@NN@internal@Eigen@@$$CBV?$CwiseNullaryOp@U?$scalar_constant_op@N@internal@Eigen@@$$CBV?$Matrix@N$0?0$00$0A@$0?0$00@3@@3@$$CBV?$Matrix@N$0?0$00$0A@$0?0$00@3@@3@@Eigen@@@Eigen@@@1@@Z
	??$?DV?$DiagonalWrapper@$$CBV?$Matrix@V?$complex@N@std@@$0?0$00$0A@$0?0$00@Eigen@@@Eigen@@@?$MatrixBase@V?$Matrix@V?$complex@N@std@@$0?0$0?0$0A@$0?0$0?0@Eigen@@@Eigen@@QEBA?BV?$Product@V?$Matrix@V?$complex@N@std@@$0?0$0?0$0A@$0?0$0?0@Eigen@@V?$DiagonalWrapper@$$CBV?$Matrix@V?$complex@N@std@@$0?0$00$0A@$0?0$00@Eigen@@@2@$00@1@AEBV?$DiagonalBase@V?$DiagonalWrapper@$$CBV?$Matrix@V?$complex@N@std@@$0?0$00$0A@$0?0$00@Eigen@@@Eigen@@@1@@Z
	??$?DV?$Map@V?$Matrix@N$00$0?0$00$00$01@Eigen@@$0A@V?$Stride@$0A@$0A@@2@@Eigen@@@?$MatrixBase@V?$CwiseBinaryOp@U?$scalar_product_op@NN@internal@Eigen@@$$CBV?$CwiseNullaryOp@U?$scalar_constant_op@N@internal@Eigen@@$$CBV?$Matrix@N$0?0$00$0A@$02$00@3@@3@$$CBV?$Block@V?$Block@V?$Matrix@N$02$01$0A@$02$01@Eigen@@$02$00$00@Eigen@@$0?0$00$0A@@3@@Eigen@@@Eigen@@QEBA?BV?$Product@V?$CwiseBinaryOp@U?$scalar_product_op@NN@internal@Eigen@@$$CBV?$CwiseNullaryOp@U?$scalar_constant_op@N@internal@Eigen@@$$CBV?$Matrix@N$0?0$00$0A@$02$00@3@@3@$$CBV?$Block@V?$Block@V?$Matrix@N$02$01$0A@$02$01@Eigen@@$02$00$00@Eigen@@$0?0$00$0A@@3@@Eigen@@V?$Map@V?$Matrix@N$00$0?0$00$00$01@Eigen@@$0A@V?$Stride@$0A@$0A@@2@@2@$0A@@1@AEBV?$MatrixBase@V?$Map@V?$Matrix@N$00$0?0$00$00$01@Eigen@@$0A@V?$Stride@$0A@$0A@@2@@Eigen@@@1@@Z
	??$?DV?$Map@V?$Matrix@N$00$0?0$00$00$02@Eigen@@$0A@V?$Stride@$0A@$0A@@2@@Eigen@@@?$MatrixBase@V?$CwiseBinaryOp@U?$scalar_product_op@NN@internal@Eigen@@$$CBV?$CwiseNullaryOp@U?$scalar_constant_op@N@internal@Eigen@@$$CBV?$Matrix@N$0?0$00$0A@$02$00@3@@3@$$CBV?$Block@$$CBV?$Matrix@N$02$01$0A@$02$01@Eigen@@$0?0$00$0A@@3@@Eigen@@@Eigen@@QEBA?BV?$Product@V?$CwiseBinaryOp@U?$scalar_product_op@NN@internal@Eigen@@$$CBV?$CwiseNullaryOp@U?$scalar_constant_op@N@internal@Eigen@@$$CBV?$Matrix@N$0?0$00$0A@$02$00@3@@3@$$CBV?$Block@$$CBV?$Matrix@N$02$01$0A@$02$01@Eigen@@$0?0$00$0A@@3@@Eigen@@V?$Map@V?$Matrix@N$00$0?0$00$00$02@Eigen@@$0A@V?$Stride@$0A@$0A@@2@@2@$0A@@1@AEBV?$MatrixBase@V?$Map@V?$Matrix@N$00$0?0$00$00$02@Eigen@@$0A@V?$Stride@$0A@$0A@@2@@Eigen@@@1@@Z
	??$?DV?$Map@V?$Matrix@N$00$0?0$00$00$0?0@Eigen@@$0A@V?$Stride@$0A@$0A@@2@@Eigen@@@?$MatrixBase@V?$CwiseBinaryOp@U?$scalar_product_op@NN@internal@Eigen@@$$CBV?$CwiseNullaryOp@U?$scalar_constant_op@N@internal@Eigen@@$$CBV?$Matrix@N$00$00$0A@$00$00@3@@3@$$CBV?$Matrix@N$00$00$0A@$00$00@3@@Eigen@@@Eigen@@QEBA?BV?$Product@V?$CwiseBinaryOp@U?$scalar_product_op@NN@internal@Eigen@@$$CBV?$CwiseNullaryOp@U?$scalar_constant_op@N@internal@Eigen@@$$CBV?$Matrix@N$00$00$0A@$00$00@3@@3@$$CBV?$Matrix@N$00$00$0A@$00$00@3@@Eigen@@V?$Map@V?$Matrix@N$00$0?0$00$00$0?0@Eigen@@$0A@V?$Stride@$0A@$0A@@2@@2@$0A@@1@AEBV?$MatrixBase@V?$Map@V?$Matrix@N$00$0?0$00$00$0?0@Eigen@@$0A@V?$Stride@$0A@$0A@@2@@Eigen@@@1@@Z
	??$?DV?$Map@V?$Matrix@N$00$0?0$00$00$0?0@Eigen@@$0A@V?$Stride@$0A@$0A@@2@@Eigen@@@?$MatrixBase@V?$CwiseBinaryOp@U?$scalar_product_op@NN@internal@Eigen@@$$CBV?$CwiseNullaryOp@U?$scalar_constant_op@N@internal@Eigen@@$$CBV?$Matrix@N$01$00$0A@$01$00@3@@3@$$CBV?$Matrix@N$01$00$0A@$01$00@3@@Eigen@@@Eigen@@QEBA?BV?$Product@V?$CwiseBinaryOp@U?$scalar_product_op@NN@internal@Eigen@@$$CBV?$CwiseNullaryOp@U?$scalar_constant_op@N@internal@Eigen@@$$CBV?$Matrix@N$01$00$0A@$01$00@3@@3@$$CBV?$Matrix@N$01$00$0A@$01$00@3@@Eigen@@V?$Map@V?$Matrix@N$00$0?0$00$00$0?0@Eigen@@$0A@V?$Stride@$0A@$0A@@2@@2@$0A@@1@AEBV?$MatrixBase@V?$Map@V?$Matrix@N$00$0?0$00$00$0?0@Eigen@@$0A@V?$Stride@$0A@$0A@@2@@Eigen@@@1@@Z
	??$?DV?$Map@V?$Matrix@N$00$0?0$00$00$0?0@Eigen@@$0A@V?$Stride@$0A@$0A@@2@@Eigen@@@?$MatrixBase@V?$CwiseBinaryOp@U?$scalar_product_op@NN@internal@Eigen@@$$CBV?$CwiseNullaryOp@U?$scalar_constant_op@N@internal@Eigen@@$$CBV?$Matrix@N$0?0$00$0A@$0?0$00@3@@3@$$CBV?$Block@$$CBV?$Matrix@N$0?0$0?0$0A@$0?0$0?0@Eigen@@$0?0$00$0A@@3@@Eigen@@@Eigen@@QEBA?BV?$Product@V?$CwiseBinaryOp@U?$scalar_product_op@NN@internal@Eigen@@$$CBV?$CwiseNullaryOp@U?$scalar_constant_op@N@internal@Eigen@@$$CBV?$Matrix@N$0?0$00$0A@$0?0$00@3@@3@$$CBV?$Block@$$CBV?$Matrix@N$0?0$0?0$0A@$0?0$0?0@Eigen@@$0?0$00$0A@@3@@Eigen@@V?$Map@V?$Matrix@N$00$0?0$00$00$0?0@Eigen@@$0A@V?$Stride@$0A@$0A@@2@@2@$0A@@1@AEBV?$MatrixBase@V?$Map@V?$Matrix@N$00$0?0$00$00$0?0@Eigen@@$0A@V?$Stride@$0A@$0A@@2@@Eigen@@@1@@Z
	??$?DV?$Map@V?$Matrix@N$00$0?0$00$00$0?0@Eigen@@$0A@V?$Stride@$0A@$0A@@2@@Eigen@@@?$MatrixBase@V?$CwiseBinaryOp@U?$scalar_product_op@NN@internal@Eigen@@$$CBV?$CwiseNullaryOp@U?$scalar_constant_op@N@internal@Eigen@@$$CBV?$Matrix@N$0?0$00$0A@$0?0$00@3@@3@$$CBV?$Block@V?$Block@V?$Matrix@N$0?0$0?0$0A@$0?0$0?0@Eigen@@$0?0$00$00@Eigen@@$0?0$00$0A@@3@@Eigen@@@Eigen@@QEBA?BV?$Product@V?$CwiseBinaryOp@U?$scalar_product_op@NN@internal@Eigen@@$$CBV?$CwiseNullaryOp@U?$scalar_constant_op@N@internal@Eigen@@$$CBV?$Matrix@N$0?0$00$0A@$0?0$00@3@@3@$$CBV?$Block@V?$Block@V?$Matrix@N$0?0$0?0$0A@$0?0$0?0@Eigen@@$0?0$00$00@Eigen@@$0?0$00$0A@@3@@Eigen@@V?$Map@V?$Matrix@N$00$0?0$00$00$0?0@Eigen@@$0A@V?$Stride@$0A@$0A@@2@@2@$0A@@1@AEBV?$MatrixBase@V?$Map@V?$Matrix@N$00$0?0$00$00$0?0@Eigen@@$0A@V?$Stride@$0A@$0A@@2@@Eigen@@@1@@Z
	??$?DV?$Matrix@N$00$00$0A@$00$00@Eigen@@@?$MatrixBase@V?$Block@V?$Block@V?$Matrix@N$0?0$0?0$0A@$0?0$0?0@Eigen@@$0?0$0?0$0A@@Eigen@@$0?0$00$0A@@Eigen@@@Eigen@@QEBA?BV?$Product@V?$Block@V?$Block@V?$Matrix@N$0?0$0?0$0A@$0?0$0?0@Eigen@@$0?0$0?0$0A@@Eigen@@$0?0$00$0A@@Eigen@@V?$Matrix@N$00$00$0A@$00$00@2@$0A@@1@AEBV?$MatrixBase@V?$Matrix@N$00$00$0A@$00$00@Eigen@@@1@@Z
	??$?DV?$Matrix@N$01$00$0A@$01$00@Eigen@@@?$MatrixBase@V?$Block@V?$Block@V?$Matrix@N$0?0$0?0$0A@$0?0$0?0@Eigen@@$0?0$0?0$0A@@Eigen@@$0?0$01$0A@@Eigen@@@Eigen@@QEBA?BV?$Product@V?$Block@V?$Block@V?$Matrix@N$0?0$0?0$0A@$0?0$0?0@Eigen@@$0?0$0?0$0A@@Eigen@@$0?0$01$0A@@Eigen@@V?$Matrix@N$01$00$0A@$01$00@2@$0A@@1@AEBV?$MatrixBase@V?$Matrix@N$01$00$0A@$01$00@Eigen@@@1@@Z
	??$?DV?$Matrix@N$0?0$00$0A@$0?0$00@Eigen@@@?$MatrixBase@V?$Matrix@V?$complex@N@std@@$0?0$0?0$0A@$0?0$0?0@Eigen@@@Eigen@@QEBA?BV?$Product@V?$Matrix@V?$complex@N@std@@$0?0$0?0$0A@$0?0$0?0@Eigen@@V?$Matrix@N$0?0$00$0A@$0?0$00@2@$0A@@1@AEBV?$MatrixBase@V?$Matrix@N$0?0$00$0A@$0?0$00@Eigen@@@1@@Z
	??$?DV?$Matrix@V?$complex@N@std@@$0?0$00$0A@$0?0$00@Eigen@@@?$MatrixBase@V?$Matrix@V?$complex@N@std@@$0?0$0?0$0A@$0?0$0?0@Eigen@@@Eigen@@QEBA?BV?$Product@V?$Matrix@V?$complex@N@std@@$0?0$0?0$0A@$0?0$0?0@Eigen@@V?$Matrix@V?$complex@N@std@@$0?0$00$0A@$0?0$00@2@$0A@@1@AEBV?$MatrixBase@V?$Matrix@V?$complex@N@std@@$0?0$00$0A@$0?0$00@Eigen@@@1@@Z
	??$?DV?$Matrix@V?$complex@N@std@@$0?0$0?0$0A@$0?0$0?0@Eigen@@@?$MatrixBase@V?$Product@V?$Matrix@V?$complex@N@std@@$0?0$0?0$0A@$0?0$0?0@Eigen@@V?$DiagonalWrapper@$$CBV?$Matrix@V?$complex@N@std@@$0?0$00$0A@$0?0$00@Eigen@@@2@$00@Eigen@@@Eigen@@QEBA?BV?$Product@V?$Product@V?$Matrix@V?$complex@N@std@@$0?0$0?0$0A@$0?0$0?0@Eigen@@V?$DiagonalWrapper@$$CBV?$Matrix@V?$complex@N@std@@$0?0$00$0A@$0?0$00@Eigen@@@2@$00@Eigen@@V?$Matrix@V?$complex@N@std@@$0?0$0?0$0A@$0?0$0?0@2@$0A@@1@AEBV?$MatrixBase@V?$Matrix@V?$complex@N@std@@$0?0$0?0$0A@$0?0$0?0@Eigen@@@1@@Z
	??$?DV?$PermutationMatrix@$0?0$0?0H@Eigen@@V?$CwiseNullaryOp@U?$scalar_identity_op@V?$complex@N@std@@@internal@Eigen@@V?$Matrix@V?$complex@N@std@@$0?0$0?0$0A@$0?0$0?0@3@@1@@Eigen@@YA?BV?$Product@V?$PermutationMatrix@$0?0$0?0H@Eigen@@V?$CwiseNullaryOp@U?$scalar_identity_op@V?$complex@N@std@@@internal@Eigen@@V?$Matrix@V?$complex@N@std@@$0?0$0?0$0A@$0?0$0?0@3@@2@$01@0@AEBV?$PermutationBase@V?$PermutationMatrix@$0?0$0?0H@Eigen@@@0@AEBV?$MatrixBase@V?$CwiseNullaryOp@U?$scalar_identity_op@V?$complex@N@std@@@internal@Eigen@@V?$Matrix@V?$complex@N@std@@$0?0$0?0$0A@$0?0$0?0@3@@Eigen@@@0@@Z
	??$?DV?$Ref@V?$Matrix@V?$complex@N@std@@$0?0$0?0$0A@$0?0$0?0@Eigen@@$0A@V?$OuterStride@$0?0@2@@Eigen@@@?$MatrixBase@V?$Ref@V?$Matrix@V?$complex@N@std@@$0?0$0?0$0A@$0?0$0?0@Eigen@@$0A@V?$OuterStride@$0?0@2@@Eigen@@@Eigen@@QEBA?BV?$Product@V?$Ref@V?$Matrix@V?$complex@N@std@@$0?0$0?0$0A@$0?0$0?0@Eigen@@$0A@V?$OuterStride@$0?0@2@@Eigen@@V12@$0A@@1@AEBV01@@Z
	??$?DV?$Transpose@$$CBV?$Block@$$CBV?$Matrix@N$02$01$0A@$02$01@Eigen@@$0?0$00$0A@@Eigen@@@Eigen@@@?$MatrixBase@V?$CwiseBinaryOp@U?$scalar_product_op@NN@internal@Eigen@@$$CBV?$CwiseNullaryOp@U?$scalar_constant_op@N@internal@Eigen@@$$CBV?$Matrix@N$0?0$00$0A@$02$00@3@@3@$$CBV?$Map@V?$Matrix@N$0?0$00$0A@$02$00@Eigen@@$0A@V?$Stride@$0A@$0A@@2@@3@@Eigen@@@Eigen@@QEBA?BV?$Product@V?$CwiseBinaryOp@U?$scalar_product_op@NN@internal@Eigen@@$$CBV?$CwiseNullaryOp@U?$scalar_constant_op@N@internal@Eigen@@$$CBV?$Matrix@N$0?0$00$0A@$02$00@3@@3@$$CBV?$Map@V?$Matrix@N$0?0$00$0A@$02$00@Eigen@@$0A@V?$Stride@$0A@$0A@@2@@3@@Eigen@@V?$Transpose@$$CBV?$Block@$$CBV?$Matrix@N$02$01$0A@$02$01@Eigen@@$0?0$00$0A@@Eigen@@@2@$0A@@1@AEBV?$MatrixBase@V?$Transpose@$$CBV?$Block@$$CBV?$Matrix@N$02$01$0A@$02$01@Eigen@@$0?0$00$0A@@Eigen@@@Eigen@@@1@@Z
	??$?DV?$Transpose@$$CBV?$Block@$$CBV?$Matrix@N$0?0$0?0$0A@$0?0$0?0@Eigen@@$0?0$00$0A@@Eigen@@@Eigen@@@?$MatrixBase@V?$CwiseBinaryOp@U?$scalar_product_op@NN@internal@Eigen@@$$CBV?$CwiseNullaryOp@U?$scalar_constant_op@N@internal@Eigen@@$$CBV?$Matrix@N$0?0$00$0A@$0?0$00@3@@3@$$CBV?$Map@V?$Matrix@N$0?0$00$0A@$0?0$00@Eigen@@$0A@V?$Stride@$0A@$0A@@2@@3@@Eigen@@@Eigen@@QEBA?BV?$Product@V?$CwiseBinaryOp@U?$scalar_product_op@NN@internal@Eigen@@$$CBV?$CwiseNullaryOp@U?$scalar_constant_op@N@internal@Eigen@@$$CBV?$Matrix@N$0?0$00$0A@$0?0$00@3@@3@$$CBV?$Map@V?$Matrix@N$0?0$00$0A@$0?0$00@Eigen@@$0A@V?$Stride@$0A@$0A@@2@@3@@Eigen@@V?$Transpose@$$CBV?$Block@$$CBV?$Matrix@N$0?0$0?0$0A@$0?0$0?0@Eigen@@$0?0$00$0A@@Eigen@@@2@$0A@@1@AEBV?$MatrixBase@V?$Transpose@$$CBV?$Block@$$CBV?$Matrix@N$0?0$0?0$0A@$0?0$0?0@Eigen@@$0?0$00$0A@@Eigen@@@Eigen@@@1@@Z
	??$?DV?$Transpose@$$CBV?$Block@V?$Block@V?$Matrix@N$0?0$0?0$0A@$0?0$0?0@Eigen@@$0?0$00$00@Eigen@@$0?0$00$0A@@Eigen@@@Eigen@@@?$MatrixBase@V?$CwiseBinaryOp@U?$scalar_product_op@NN@internal@Eigen@@$$CBV?$CwiseNullaryOp@U?$scalar_constant_op@N@internal@Eigen@@$$CBV?$Matrix@N$0?0$00$0A@$0?0$00@3@@3@$$CBV?$Map@V?$Matrix@N$0?0$00$0A@$0?0$00@Eigen@@$0A@V?$Stride@$0A@$0A@@2@@3@@Eigen@@@Eigen@@QEBA?BV?$Product@V?$CwiseBinaryOp@U?$scalar_product_op@NN@internal@Eigen@@$$CBV?$CwiseNullaryOp@U?$scalar_constant_op@N@internal@Eigen@@$$CBV?$Matrix@N$0?0$00$0A@$0?0$00@3@@3@$$CBV?$Map@V?$Matrix@N$0?0$00$0A@$0?0$00@Eigen@@$0A@V?$Stride@$0A@$0A@@2@@3@@Eigen@@V?$Transpose@$$CBV?$Block@V?$Block@V?$Matrix@N$0?0$0?0$0A@$0?0$0?0@Eigen@@$0?0$00$00@Eigen@@$0?0$00$0A@@Eigen@@@2@$0A@@1@AEBV?$MatrixBase@V?$Transpose@$$CBV?$Block@V?$Block@V?$Matrix@N$0?0$0?0$0A@$0?0$0?0@Eigen@@$0?0$00$00@Eigen@@$0?0$00$0A@@Eigen@@@Eigen@@@1@@Z
	??$?DV?$Transpose@$$CBV?$Matrix@N$00$00$0A@$00$00@Eigen@@@Eigen@@@?$MatrixBase@V?$CwiseBinaryOp@U?$scalar_product_op@NN@internal@Eigen@@$$CBV?$CwiseNullaryOp@U?$scalar_constant_op@N@internal@Eigen@@$$CBV?$Matrix@N$0?0$00$0A@$0?0$00@3@@3@$$CBV?$Map@V?$Matrix@N$0?0$00$0A@$0?0$00@Eigen@@$0A@V?$Stride@$0A@$0A@@2@@3@@Eigen@@@Eigen@@QEBA?BV?$Product@V?$CwiseBinaryOp@U?$scalar_product_op@NN@internal@Eigen@@$$CBV?$CwiseNullaryOp@U?$scalar_constant_op@N@internal@Eigen@@$$CBV?$Matrix@N$0?0$00$0A@$0?0$00@3@@3@$$CBV?$Map@V?$Matrix@N$0?0$00$0A@$0?0$00@Eigen@@$0A@V?$Stride@$0A@$0A@@2@@3@@Eigen@@V?$Transpose@$$CBV?$Matrix@N$00$00$0A@$00$00@Eigen@@@2@$0A@@1@AEBV?$MatrixBase@V?$Transpose@$$CBV?$Matrix@N$00$00$0A@$00$00@Eigen@@@Eigen@@@1@@Z
	??$?DV?$Transpose@$$CBV?$Matrix@N$01$00$0A@$01$00@Eigen@@@Eigen@@@?$MatrixBase@V?$CwiseBinaryOp@U?$scalar_product_op@NN@internal@Eigen@@$$CBV?$CwiseNullaryOp@U?$scalar_constant_op@N@internal@Eigen@@$$CBV?$Matrix@N$0?0$00$0A@$0?0$00@3@@3@$$CBV?$Map@V?$Matrix@N$0?0$00$0A@$0?0$00@Eigen@@$0A@V?$Stride@$0A@$0A@@2@@3@@Eigen@@@Eigen@@QEBA?BV?$Product@V?$CwiseBinaryOp@U?$scalar_product_op@NN@internal@Eigen@@$$CBV?$CwiseNullaryOp@U?$scalar_constant_op@N@internal@Eigen@@$$CBV?$Matrix@N$0?0$00$0A@$0?0$00@3@@3@$$CBV?$Map@V?$Matrix@N$0?0$00$0A@$0?0$00@Eigen@@$0A@V?$Stride@$0A@$0A@@2@@3@@Eigen@@V?$Transpose@$$CBV?$Matrix@N$01$00$0A@$01$00@Eigen@@@2@$0A@@1@AEBV?$MatrixBase@V?$Transpose@$$CBV?$Matrix@N$01$00$0A@$01$00@Eigen@@@Eigen@@@1@@Z
	??$?ZV?$SparseMatrix@N$0A@H@Eigen@@@?$DenseBase@V?$Matrix@N$0?0$0?0$0A@$0?0$0?0@Eigen@@@Eigen@@QEAAAEAV?$Matrix@N$0?0$0?0$0A@$0?0$0?0@1@AEBU?$EigenBase@V?$SparseMatrix@N$0A@H@Eigen@@@1@@Z
	??$FromTwoVectors@V?$Matrix@N$02$00$0A@$02$00@Eigen@@V12@@?$Quaternion@N$0A@@Eigen@@SA?AV01@AEBV?$MatrixBase@V?$Matrix@N$02$00$0A@$02$00@Eigen@@@1@0@Z
	??$NullaryExpr@U?$linspaced_op@H@internal@Eigen@@@?$DenseBase@V?$Map@V?$Array@H$0?0$00$0A@$0?0$00@Eigen@@$0A@V?$Stride@$0A@$0A@@2@@Eigen@@@Eigen@@SA?BV?$CwiseNullaryOp@U?$linspaced_op@H@internal@Eigen@@V?$Array@H$0?0$00$0A@$0?0$00@3@@1@_JAEBU?$linspaced_op@H@internal@1@@Z
	??$NullaryExpr@U?$scalar_constant_op@N@internal@Eigen@@@?$DenseBase@V?$Block@V?$Block@V?$Block@V?$Matrix@N$02$01$0A@$02$01@Eigen@@$02$00$00@Eigen@@$0?0$00$0A@@Eigen@@$0?0$00$0A@@Eigen@@@Eigen@@SA?BV?$CwiseNullaryOp@U?$scalar_constant_op@N@internal@Eigen@@V?$Matrix@N$0?0$00$0A@$02$00@3@@1@_J0AEBU?$scalar_constant_op@N@internal@1@@Z
	??$NullaryExpr@U?$scalar_constant_op@N@internal@Eigen@@@?$DenseBase@V?$Block@V?$Block@V?$Block@V?$Matrix@N$0?0$0?0$0A@$0?0$0?0@Eigen@@$0?0$00$00@Eigen@@$0?0$00$0A@@Eigen@@$0?0$00$0A@@Eigen@@@Eigen@@SA?BV?$CwiseNullaryOp@U?$scalar_constant_op@N@internal@Eigen@@V?$Matrix@N$0?0$00$0A@$0?0$00@3@@1@_J0AEBU?$scalar_constant_op@N@internal@1@@Z
	??$NullaryExpr@U?$scalar_constant_op@N@internal@Eigen@@@?$DenseBase@V?$Block@V?$Block@V?$Matrix@N$02$02$0A@$02$02@Eigen@@$02$00$00@Eigen@@$0?0$00$0A@@Eigen@@@Eigen@@SA?BV?$CwiseNullaryOp@U?$scalar_constant_op@N@internal@Eigen@@V?$Matrix@N$0?0$00$0A@$02$00@3@@1@_J0AEBU?$scalar_constant_op@N@internal@1@@Z
	??$NullaryExpr@U?$scalar_constant_op@N@internal@Eigen@@@?$DenseBase@V?$Block@V?$Block@V?$Matrix@N$0?0$0?0$00$0?0$0?0@Eigen@@$00$0?0$00@Eigen@@$00$0?0$0A@@Eigen@@@Eigen@@SA?BV?$CwiseNullaryOp@U?$scalar_constant_op@N@internal@Eigen@@V?$Matrix@N$00$0?0$00$00$0?0@3@@1@_J0AEBU?$scalar_constant_op@N@internal@1@@Z
	??$NullaryExpr@U?$scalar_constant_op@N@internal@Eigen@@@?$DenseBase@V?$Block@V?$Block@V?$Matrix@N$0?0$0?0$0A@$0?0$0?0@Eigen@@$0?0$00$00@Eigen@@$0?0$00$0A@@Eigen@@@Eigen@@SA?BV?$CwiseNullaryOp@U?$scalar_constant_op@N@internal@Eigen@@V?$Matrix@N$0?0$00$0A@$0?0$00@3@@1@_J0AEBU?$scalar_constant_op@N@internal@1@@Z
	??$NullaryExpr@U?$scalar_constant_op@N@internal@Eigen@@@?$DenseBase@V?$Block@V?$Matrix@N$0?0$0?0$0A@$0?0$0?0@Eigen@@$0?0$0?0$0A@@Eigen@@@Eigen@@SA?BV?$CwiseNullaryOp@U?$scalar_constant_op@N@internal@Eigen@@V?$Matrix@N$0?0$0?0$0A@$0?0$0?0@3@@1@_J0AEBU?$scalar_constant_op@N@internal@1@@Z
	??$NullaryExpr@U?$scalar_constant_op@N@internal@Eigen@@@?$DenseBase@V?$Diagonal@V?$Matrix@N$02$02$0A@$02$02@Eigen@@$0A@@Eigen@@@Eigen@@SA?BV?$CwiseNullaryOp@U?$scalar_constant_op@N@internal@Eigen@@V?$Matrix@N$02$00$0A@$02$00@3@@1@_J0AEBU?$scalar_constant_op@N@internal@1@@Z
	??$NullaryExpr@U?$scalar_constant_op@N@internal@Eigen@@@?$DenseBase@V?$Diagonal@V?$Matrix@N$07$07$00$07$07@Eigen@@$0A@@Eigen@@@Eigen@@SA?BV?$CwiseNullaryOp@U?$scalar_constant_op@N@internal@Eigen@@V?$Matrix@N$07$00$0A@$07$00@3@@1@_J0AEBU?$scalar_constant_op@N@internal@1@@Z
	??$NullaryExpr@U?$scalar_constant_op@N@internal@Eigen@@@?$DenseBase@V?$Diagonal@V?$Matrix@N$07$07$0A@$07$07@Eigen@@$0A@@Eigen@@@Eigen@@SA?BV?$CwiseNullaryOp@U?$scalar_constant_op@N@internal@Eigen@@V?$Matrix@N$07$00$0A@$07$00@3@@1@_J0AEBU?$scalar_constant_op@N@internal@1@@Z
	??$NullaryExpr@U?$scalar_constant_op@N@internal@Eigen@@@?$DenseBase@V?$Diagonal@V?$Matrix@N$0?0$0?0$0A@$0?0$0?0@Eigen@@$0A@@Eigen@@@Eigen@@SA?BV?$CwiseNullaryOp@U?$scalar_constant_op@N@internal@Eigen@@V?$Matrix@N$0?0$00$0A@$0?0$00@3@@1@_J0AEBU?$scalar_constant_op@N@internal@1@@Z
	??$NullaryExpr@U?$scalar_constant_op@N@internal@Eigen@@@?$DenseBase@V?$Map@V?$Array@N$0?0$00$0A@$0?0$00@Eigen@@$0A@V?$Stride@$0A@$0A@@2@@Eigen@@@Eigen@@SA?BV?$CwiseNullaryOp@U?$scalar_constant_op@N@internal@Eigen@@V?$Array@N$0?0$00$0A@$0?0$00@3@@1@_J0AEBU?$scalar_constant_op@N@internal@1@@Z
	??$NullaryExpr@U?$scalar_constant_op@N@internal@Eigen@@@?$DenseBase@V?$Map@V?$Matrix@N$00$0?0$00$00$0?0@Eigen@@$0A@V?$Stride@$0A@$0A@@2@@Eigen@@@Eigen@@SA?BV?$CwiseNullaryOp@U?$scalar_constant_op@N@internal@Eigen@@V?$Matrix@N$00$0?0$00$00$0?0@3@@1@_J0AEBU?$scalar_constant_op@N@internal@1@@Z
	??$NullaryExpr@U?$scalar_constant_op@N@internal@Eigen@@@?$DenseBase@V?$Map@V?$Matrix@N$0?0$00$0A@$0?0$00@Eigen@@$01V?$Stride@$0A@$0A@@2@@Eigen@@@Eigen@@SA?BV?$CwiseNullaryOp@U?$scalar_constant_op@N@internal@Eigen@@V?$Matrix@N$0?0$00$0A@$0?0$00@3@@1@_J0AEBU?$scalar_constant_op@N@internal@1@@Z
	??$NullaryExpr@U?$scalar_constant_op@N@internal@Eigen@@@?$DenseBase@V?$Map@V?$Matrix@N$0?0$00$0A@$0?0$00@Eigen@@$0A@V?$Stride@$0A@$0A@@2@@Eigen@@@Eigen@@SA?BV?$CwiseNullaryOp@U?$scalar_constant_op@N@internal@Eigen@@V?$Matrix@N$0?0$00$0A@$0?0$00@3@@1@_J0AEBU?$scalar_constant_op@N@internal@1@@Z
	??$NullaryExpr@U?$scalar_constant_op@N@internal@Eigen@@@?$DenseBase@V?$Matrix@N$00$00$0A@$00$00@Eigen@@@Eigen@@SA?BV?$CwiseNullaryOp@U?$scalar_constant_op@N@internal@Eigen@@V?$Matrix@N$00$00$0A@$00$00@3@@1@_J0AEBU?$scalar_constant_op@N@internal@1@@Z
	??$NullaryExpr@U?$scalar_constant_op@N@internal@Eigen@@@?$DenseBase@V?$Matrix@N$01$00$0A@$01$00@Eigen@@@Eigen@@SA?BV?$CwiseNullaryOp@U?$scalar_constant_op@N@internal@Eigen@@V?$Matrix@N$01$00$0A@$01$00@3@@1@_J0AEBU?$scalar_constant_op@N@internal@1@@Z
	??$NullaryExpr@U?$scalar_constant_op@N@internal@Eigen@@@?$DenseBase@V?$Matrix@N$01$01$0A@$01$01@Eigen@@@Eigen@@SA?BV?$CwiseNullaryOp@U?$scalar_constant_op@N@internal@Eigen@@V?$Matrix@N$01$01$0A@$01$01@3@@1@_J0AEBU?$scalar_constant_op@N@internal@1@@Z
	??$NullaryExpr@U?$scalar_constant_op@N@internal@Eigen@@@?$DenseBase@V?$Matrix@N$02$00$0A@$02$00@Eigen@@@Eigen@@SA?BV?$CwiseNullaryOp@U?$scalar_constant_op@N@internal@Eigen@@V?$Matrix@N$02$00$0A@$02$00@3@@1@_J0AEBU?$scalar_constant_op@N@internal@1@@Z
	??$NullaryExpr@U?$scalar_constant_op@N@internal@Eigen@@@?$DenseBase@V?$Matrix@N$02$02$0A@$02$02@Eigen@@@Eigen@@SA?BV?$CwiseNullaryOp@U?$scalar_constant_op@N@internal@Eigen@@V?$Matrix@N$02$02$0A@$02$02@3@@1@_J0AEBU?$scalar_constant_op@N@internal@1@@Z
	??$NullaryExpr@U?$scalar_constant_op@N@internal@Eigen@@@?$DenseBase@V?$Matrix@N$07$07$00$07$07@Eigen@@@Eigen@@SA?BV?$CwiseNullaryOp@U?$scalar_constant_op@N@internal@Eigen@@V?$Matrix@N$07$07$00$07$07@3@@1@_J0AEBU?$scalar_constant_op@N@internal@1@@Z
	??$NullaryExpr@U?$scalar_constant_op@N@internal@Eigen@@@?$DenseBase@V?$Matrix@N$07$07$0A@$07$07@Eigen@@@Eigen@@SA?BV?$CwiseNullaryOp@U?$scalar_constant_op@N@internal@Eigen@@V?$Matrix@N$07$07$0A@$07$07@3@@1@_J0AEBU?$scalar_constant_op@N@internal@1@@Z
	??$NullaryExpr@U?$scalar_constant_op@N@internal@Eigen@@@?$DenseBase@V?$Matrix@N$0?0$00$0A@$0?0$00@Eigen@@@Eigen@@SA?BV?$CwiseNullaryOp@U?$scalar_constant_op@N@internal@Eigen@@V?$Matrix@N$0?0$00$0A@$0?0$00@3@@1@_J0AEBU?$scalar_constant_op@N@internal@1@@Z
	??$NullaryExpr@U?$scalar_constant_op@N@internal@Eigen@@@?$DenseBase@V?$Matrix@N$0?0$0?0$0A@$01$02@Eigen@@@Eigen@@SA?BV?$CwiseNullaryOp@U?$scalar_constant_op@N@internal@Eigen@@V?$Matrix@N$0?0$0?0$0A@$01$02@3@@1@_J0AEBU?$scalar_constant_op@N@internal@1@@Z
	??$NullaryExpr@U?$scalar_constant_op@N@internal@Eigen@@@?$DenseBase@V?$Matrix@N$0?0$0?0$0A@$02$01@Eigen@@@Eigen@@SA?BV?$CwiseNullaryOp@U?$scalar_constant_op@N@internal@Eigen@@V?$Matrix@N$0?0$0?0$0A@$02$01@3@@1@_J0AEBU?$scalar_constant_op@N@internal@1@@Z
	??$NullaryExpr@U?$scalar_constant_op@N@internal@Eigen@@@?$DenseBase@V?$Matrix@N$0?0$0?0$0A@$02$02@Eigen@@@Eigen@@SA?BV?$CwiseNullaryOp@U?$scalar_constant_op@N@internal@Eigen@@V?$Matrix@N$0?0$0?0$0A@$02$02@3@@1@_J0AEBU?$scalar_constant_op@N@internal@1@@Z
	??$NullaryExpr@U?$scalar_constant_op@N@internal@Eigen@@@?$DenseBase@V?$Matrix@N$0?0$0?0$0A@$0?0$02@Eigen@@@Eigen@@SA?BV?$CwiseNullaryOp@U?$scalar_constant_op@N@internal@Eigen@@V?$Matrix@N$0?0$0?0$0A@$0?0$02@3@@1@_J0AEBU?$scalar_constant_op@N@internal@1@@Z
	??$NullaryExpr@U?$scalar_constant_op@N@internal@Eigen@@@?$DenseBase@V?$Matrix@N$0?0$0?0$0A@$0?0$0?0@Eigen@@@Eigen@@SA?BV?$CwiseNullaryOp@U?$scalar_constant_op@N@internal@Eigen@@V?$Matrix@N$0?0$0?0$0A@$0?0$0?0@3@@1@_J0AEBU?$scalar_constant_op@N@internal@1@@Z
	??$NullaryExpr@U?$scalar_constant_op@V?$complex@N@std@@@internal@Eigen@@@?$DenseBase@V?$Map@V?$Matrix@V?$complex@N@std@@$0?0$00$0A@$0?0$00@Eigen@@$00V?$Stride@$0A@$0A@@2@@Eigen@@@Eigen@@SA?BV?$CwiseNullaryOp@U?$scalar_constant_op@V?$complex@N@std@@@internal@Eigen@@V?$Matrix@V?$complex@N@std@@$0?0$00$0A@$0?0$00@3@@1@_J0AEBU?$scalar_constant_op@V?$complex@N@std@@@internal@1@@Z
	??$NullaryExpr@U?$scalar_constant_op@V?$complex@N@std@@@internal@Eigen@@@?$DenseBase@V?$Matrix@V?$complex@N@std@@$0?0$00$0A@$0?0$00@Eigen@@@Eigen@@SA?BV?$CwiseNullaryOp@U?$scalar_constant_op@V?$complex@N@std@@@internal@Eigen@@V?$Matrix@V?$complex@N@std@@$0?0$00$0A@$0?0$00@3@@1@_J0AEBU?$scalar_constant_op@V?$complex@N@std@@@internal@1@@Z
	??$NullaryExpr@U?$scalar_constant_op@_N@internal@Eigen@@@?$DenseBase@V?$Matrix@_N$0?0$00$0A@$0?0$00@Eigen@@@Eigen@@SA?BV?$CwiseNullaryOp@U?$scalar_constant_op@_N@internal@Eigen@@V?$Matrix@_N$0?0$00$0A@$0?0$00@3@@1@_J0AEBU?$scalar_constant_op@_N@internal@1@@Z
	??$NullaryExpr@U?$scalar_identity_op@N@internal@Eigen@@@?$DenseBase@V?$Matrix@N$01$01$0A@$01$01@Eigen@@@Eigen@@SA?BV?$CwiseNullaryOp@U?$scalar_identity_op@N@internal@Eigen@@V?$Matrix@N$01$01$0A@$01$01@3@@1@_J0AEBU?$scalar_identity_op@N@internal@1@@Z
	??$NullaryExpr@U?$scalar_identity_op@N@internal@Eigen@@@?$DenseBase@V?$Matrix@N$02$02$0A@$02$02@Eigen@@@Eigen@@SA?BV?$CwiseNullaryOp@U?$scalar_identity_op@N@internal@Eigen@@V?$Matrix@N$02$02$0A@$02$02@3@@1@_J0AEBU?$scalar_identity_op@N@internal@1@@Z
	??$NullaryExpr@U?$scalar_identity_op@N@internal@Eigen@@@?$DenseBase@V?$Matrix@N$0?0$0?0$0A@$0?0$0?0@Eigen@@@Eigen@@SA?BV?$CwiseNullaryOp@U?$scalar_identity_op@N@internal@Eigen@@V?$Matrix@N$0?0$0?0$0A@$0?0$0?0@3@@1@_J0AEBU?$scalar_identity_op@N@internal@1@@Z
	??$NullaryExpr@U?$scalar_identity_op@V?$complex@N@std@@@internal@Eigen@@@?$DenseBase@V?$Matrix@V?$complex@N@std@@$0?0$0?0$0A@$0?0$0?0@Eigen@@@Eigen@@SA?BV?$CwiseNullaryOp@U?$scalar_identity_op@V?$complex@N@std@@@internal@Eigen@@V?$Matrix@V?$complex@N@std@@$0?0$0?0$0A@$0?0$0?0@3@@1@_J0AEBU?$scalar_identity_op@V?$complex@N@std@@@internal@1@@Z
	??$_Allocate_manually_vector_aligned@U_Default_allocate_traits@std@@@std@@YAPEAX_K@Z
	??$_Copy_backward_memmove@PEAPEBVNode@pwd@@PEAPEBV12@@std@@YAPEAPEBVNode@pwd@@PEAPEBV12@00@Z
	??$_Copy_memmove@PEAPEAVNode@pwd@@PEAPEAV12@@std@@YAPEAPEAVNode@pwd@@PEAPEAV12@00@Z
	??$_Copy_memmove@PEAPEBVNode@pwd@@PEAPEBV12@@std@@YAPEAPEBVNode@pwd@@PEAPEBV12@00@Z
	??$_Copy_memmove@PEBQEAVNode@pwd@@PEAPEBV12@@std@@YAPEAPEBVNode@pwd@@PEBQEAV12@0PEAPEBV12@@Z
	??$_Emplace_reallocate@AEBQEAVNode@pwd@@@?$vector@PEAVNode@pwd@@V?$allocator@PEAVNode@pwd@@@std@@@std@@QEAAPEAPEAVNode@pwd@@QEAPEAV23@AEBQEAV23@@Z
	??$_Emplace_reallocate@AEBQEBVNode@pwd@@@?$vector@PEBVNode@pwd@@V?$allocator@PEBVNode@pwd@@@std@@@std@@QEAAPEAPEBVNode@pwd@@QEAPEBV23@AEBQEBV23@@Z
	??$_Fill_memset@PEA_N_N@std@@YAXPEA_N_N_K@Z
	??$_Fill_zero_memset@PEAN@std@@YAXPEAN_K@Z
	??$_Fnv1a_append_value@H@std@@YA_K_KAEBH@Z
	??$_Fnv1a_append_value@PEBVNode@pwd@@@std@@YA_K_KAEBQEBVNode@pwd@@@Z
	??$_Hash_representation@H@std@@YA_KAEBH@Z
	??$_Hash_representation@PEBVNode@pwd@@@std@@YA_KAEBQEBVNode@pwd@@@Z
	??$_Insert_range@PEBQEAVNode@pwd@@@?$vector@PEBVNode@pwd@@V?$allocator@PEBVNode@pwd@@@std@@@std@@AEAAXV?$_Vector_const_iterator@V?$_Vector_val@U?$_Simple_types@PEBVNode@pwd@@@std@@@std@@@1@PEBQEAVNode@pwd@@1Uforward_iterator_tag@1@@Z
	??$_Insert_string@DU?$char_traits@D@std@@_K@std@@YAAEAV?$basic_ostream@DU?$char_traits@D@std@@@0@AEAV10@QEBD_K@Z
	??$_Is_all_bits_zero@N@std@@YA_NAEBN@Z
	??$_Move_unchecked@PEAPEBVNode@pwd@@PEAPEBV12@@std@@YAPEAPEBVNode@pwd@@PEAPEBV12@00@Z
	??$_Reallocate_grow_by@V<lambda_319d5e083f45f90dcdce5dce53cbb275>@@D@?$basic_string@DU?$char_traits@D@std@@V?$allocator@D@2@@std@@AEAAAEAV01@_KV<lambda_319d5e083f45f90dcdce5dce53cbb275>@@D@Z
	??$_Uninitialized_move@PEAPEBVNode@pwd@@V?$allocator@PEBVNode@pwd@@@std@@@std@@YAPEAPEBVNode@pwd@@QEAPEBV12@0PEAPEBV12@AEAV?$allocator@PEBVNode@pwd@@@0@@Z
	??$_solve_impl@V?$CwiseNullaryOp@U?$scalar_identity_op@V?$complex@N@std@@@internal@Eigen@@V?$Matrix@V?$complex@N@std@@$0?0$0?0$0A@$0?0$0?0@3@@Eigen@@V?$Matrix@V?$complex@N@std@@$0?0$0?0$0A@$0?0$0?0@2@@?$PartialPivLU@V?$Matrix@V?$complex@N@std@@$0?0$0?0$0A@$0?0$0?0@Eigen@@@Eigen@@QEBAXAEBV?$CwiseNullaryOp@U?$scalar_identity_op@V?$complex@N@std@@@internal@Eigen@@V?$Matrix@V?$complex@N@std@@$0?0$0?0$0A@$0?0$0?0@3@@1@AEAV?$Matrix@V?$complex@N@std@@$0?0$0?0$0A@$0?0$0?0@1@@Z
	??$abs@N@std@@YANAEBV?$complex@N@0@@Z
	??$applyHouseholderOnTheLeft@V?$Block@$$CBV?$Matrix@N$02$01$0A@$02$01@Eigen@@$0?0$00$0A@@Eigen@@@?$MatrixBase@V?$Block@V?$Matrix@N$02$02$0A@$02$02@Eigen@@$0?0$0?0$0A@@Eigen@@@Eigen@@QEAAXAEBV?$Block@$$CBV?$Matrix@N$02$01$0A@$02$01@Eigen@@$0?0$00$0A@@1@AEBNPEAN@Z
	??$applyHouseholderOnTheLeft@V?$Block@$$CBV?$Matrix@N$0?0$0?0$0A@$0?0$0?0@Eigen@@$0?0$00$0A@@Eigen@@@?$MatrixBase@V?$Block@V?$Matrix@N$0?0$0?0$0A@$0?0$0?0@Eigen@@$0?0$0?0$0A@@Eigen@@@Eigen@@QEAAXAEBV?$Block@$$CBV?$Matrix@N$0?0$0?0$0A@$0?0$0?0@Eigen@@$0?0$00$0A@@1@AEBNPEAN@Z
	??$applyHouseholderOnTheLeft@V?$Matrix@N$00$00$0A@$00$00@Eigen@@@?$MatrixBase@V?$Block@V?$Matrix@N$0?0$0?0$0A@$0?0$0?0@Eigen@@$0?0$0?0$0A@@Eigen@@@Eigen@@QEAAXAEBV?$Matrix@N$00$00$0A@$00$00@1@AEBNPEAN@Z
	??$applyHouseholderOnTheLeft@V?$Matrix@N$01$00$0A@$01$00@Eigen@@@?$MatrixBase@V?$Block@V?$Matrix@N$0?0$0?0$0A@$0?0$0?0@Eigen@@$0?0$0?0$0A@@Eigen@@@Eigen@@QEAAXAEBV?$Matrix@N$01$00$0A@$01$00@1@AEBNPEAN@Z
	??$applyHouseholderOnTheLeft@V?$VectorBlock@V?$Block@V?$Matrix@N$02$01$0A@$02$01@Eigen@@$02$00$00@Eigen@@$0?0@Eigen@@@?$MatrixBase@V?$Block@V?$Matrix@N$02$01$0A@$02$01@Eigen@@$0?0$0?0$0A@@Eigen@@@Eigen@@QEAAXAEBV?$VectorBlock@V?$Block@V?$Matrix@N$02$01$0A@$02$01@Eigen@@$02$00$00@Eigen@@$0?0@1@AEBNPEAN@Z
	??$applyHouseholderOnTheLeft@V?$VectorBlock@V?$Block@V?$Matrix@N$0?0$0?0$0A@$0?0$0?0@Eigen@@$0?0$00$00@Eigen@@$0?0@Eigen@@@?$MatrixBase@V?$Block@V?$Matrix@N$0?0$0?0$0A@$0?0$0?0@Eigen@@$0?0$0?0$0A@@Eigen@@@Eigen@@QEAAXAEBV?$VectorBlock@V?$Block@V?$Matrix@N$0?0$0?0$0A@$0?0$0?0@Eigen@@$0?0$00$00@Eigen@@$0?0@1@AEBNPEAN@Z
	??$applyHouseholderOnTheRight@V?$Block@$$CBV?$Matrix@N$02$01$0A@$02$01@Eigen@@$0?0$00$0A@@Eigen@@@?$MatrixBase@V?$Block@V?$Matrix@N$02$02$0A@$02$02@Eigen@@$0?0$0?0$0A@@Eigen@@@Eigen@@QEAAXAEBV?$Block@$$CBV?$Matrix@N$02$01$0A@$02$01@Eigen@@$0?0$00$0A@@1@AEBNPEAN@Z
	??$applyHouseholderOnTheRight@V?$Block@$$CBV?$Matrix@N$0?0$0?0$0A@$0?0$0?0@Eigen@@$0?0$00$0A@@Eigen@@@?$MatrixBase@V?$Block@V?$Matrix@N$0?0$0?0$0A@$0?0$0?0@Eigen@@$0?0$0?0$0A@@Eigen@@@Eigen@@QEAAXAEBV?$Block@$$CBV?$Matrix@N$0?0$0?0$0A@$0?0$0?0@Eigen@@$0?0$00$0A@@1@AEBNPEAN@Z
	??$applyHouseholderOnTheRight@V?$Matrix@N$00$00$0A@$00$00@Eigen@@@?$MatrixBase@V?$Block@V?$Matrix@N$0?0$0?0$0A@$0?0$0?0@Eigen@@$0?0$0?0$0A@@Eigen@@@Eigen@@QEAAXAEBV?$Matrix@N$00$00$0A@$00$00@1@AEBNPEAN@Z
	??$applyHouseholderOnTheRight@V?$Matrix@N$01$00$0A@$01$00@Eigen@@@?$MatrixBase@V?$Block@V?$Matrix@N$0?0$0?0$0A@$0?0$0?0@Eigen@@$0?0$0?0$0A@@Eigen@@@Eigen@@QEAAXAEBV?$Matrix@N$01$00$0A@$01$00@1@AEBNPEAN@Z
	??$applyHouseholderOnTheRight@V?$VectorBlock@V?$Block@V?$Matrix@N$0?0$0?0$0A@$0?0$0?0@Eigen@@$0?0$00$00@Eigen@@$0?0@Eigen@@@?$MatrixBase@V?$Block@V?$Matrix@N$0?0$0?0$0A@$0?0$0?0@Eigen@@$0?0$0?0$00@Eigen@@@Eigen@@QEAAXAEBV?$VectorBlock@V?$Block@V?$Matrix@N$0?0$0?0$0A@$0?0$0?0@Eigen@@$0?0$00$00@Eigen@@$0?0@1@AEBNPEAN@Z
	??$applyOnTheLeft@N@?$MatrixBase@V?$Block@V?$Matrix@N$0?0$0?0$0A@$0?0$0?0@Eigen@@$0?0$0?0$00@Eigen@@@Eigen@@QEAAX_J0AEBV?$JacobiRotation@N@1@@Z
	??$applyOnTheLeft@N@?$MatrixBase@V?$Matrix@N$01$01$0A@$01$01@Eigen@@@Eigen@@QEAAX_J0AEBV?$JacobiRotation@N@1@@Z
	??$applyOnTheRight@N@?$MatrixBase@V?$Block@V?$Matrix@N$0?0$0?0$0A@$0?0$0?0@Eigen@@$0?0$0?0$0A@@Eigen@@@Eigen@@QEAAX_J0AEBV?$JacobiRotation@N@1@@Z
	??$applyOnTheRight@N@?$MatrixBase@V?$Matrix@N$01$01$0A@$01$01@Eigen@@@Eigen@@QEAAX_J0AEBV?$JacobiRotation@N@1@@Z
	??$applyOnTheRight@N@?$MatrixBase@V?$Matrix@N$02$02$0A@$02$02@Eigen@@@Eigen@@QEAAX_J0AEBV?$JacobiRotation@N@1@@Z
	??$applyOnTheRight@N@?$MatrixBase@V?$Matrix@N$0?0$0?0$0A@$0?0$0?0@Eigen@@@Eigen@@QEAAX_J0AEBV?$JacobiRotation@N@1@@Z
	??$applyThisOnTheLeft@V?$Matrix@N$02$02$0A@$02$02@Eigen@@V?$Matrix@N$00$02$00$00$02@2@@?$HouseholderSequence@V?$Matrix@N$02$01$0A@$02$01@Eigen@@V?$Matrix@N$01$00$0A@$01$00@2@$00@Eigen@@QEBAXAEAV?$Matrix@N$02$02$0A@$02$02@1@AEAV?$Matrix@N$00$02$00$00$02@1@_N@Z
	??$applyThisOnTheLeft@V?$Matrix@N$0?0$0?0$0A@$0?0$0?0@Eigen@@V?$Matrix@N$0?0$00$0A@$0?0$00@2@@?$HouseholderSequence@V?$Matrix@N$0?0$0?0$0A@$0?0$0?0@Eigen@@V?$Matrix@N$0?0$00$0A@$0?0$00@2@$00@Eigen@@QEBAXAEAV?$Matrix@N$0?0$0?0$0A@$0?0$0?0@1@AEAV?$Matrix@N$0?0$00$0A@$0?0$00@1@_N@Z
	??$apply_block_householder_on_the_left@V?$Block@V?$Matrix@N$02$02$0A@$02$02@Eigen@@$0?0$0?0$0A@@Eigen@@V?$Block@V?$Matrix@N$02$01$0A@$02$01@Eigen@@$0?0$0?0$0A@@2@V?$VectorBlock@$$CBV?$Matrix@N$01$00$0A@$01$00@Eigen@@$0?0@2@@internal@Eigen@@YAXAEAV?$Block@V?$Matrix@N$02$02$0A@$02$02@Eigen@@$0?0$0?0$0A@@1@AEBV?$Block@V?$Matrix@N$02$01$0A@$02$01@Eigen@@$0?0$0?0$0A@@1@AEBV?$VectorBlock@$$CBV?$Matrix@N$01$00$0A@$01$00@Eigen@@$0?0@1@_N@Z
	??$apply_block_householder_on_the_left@V?$Block@V?$Matrix@N$0?0$0?0$0A@$0?0$0?0@Eigen@@$0?0$0?0$0A@@Eigen@@V12@V?$VectorBlock@$$CBV?$Matrix@N$0?0$00$0A@$0?0$00@Eigen@@$0?0@2@@internal@Eigen@@YAXAEAV?$Block@V?$Matrix@N$0?0$0?0$0A@$0?0$0?0@Eigen@@$0?0$0?0$0A@@1@AEBV21@AEBV?$VectorBlock@$$CBV?$Matrix@N$0?0$00$0A@$0?0$00@Eigen@@$0?0@1@_N@Z
	??$apply_rotation_in_the_plane@V?$Block@V?$Block@V?$Matrix@N$0?0$0?0$0A@$0?0$0?0@Eigen@@$0?0$0?0$00@Eigen@@$00$0?0$0A@@Eigen@@V12@N@internal@Eigen@@YAXAEAV?$DenseBase@V?$Block@V?$Block@V?$Matrix@N$0?0$0?0$0A@$0?0$0?0@Eigen@@$0?0$0?0$00@Eigen@@$00$0?0$0A@@Eigen@@@1@0AEBV?$JacobiRotation@N@1@@Z
	??$apply_rotation_in_the_plane@V?$Block@V?$Block@V?$Matrix@N$0?0$0?0$0A@$0?0$0?0@Eigen@@$0?0$0?0$0A@@Eigen@@$0?0$00$00@Eigen@@V12@N@internal@Eigen@@YAXAEAV?$DenseBase@V?$Block@V?$Block@V?$Matrix@N$0?0$0?0$0A@$0?0$0?0@Eigen@@$0?0$0?0$0A@@Eigen@@$0?0$00$00@Eigen@@@1@0AEBV?$JacobiRotation@N@1@@Z
	??$apply_rotation_in_the_plane@V?$Block@V?$Matrix@N$01$01$0A@$01$01@Eigen@@$00$01$0A@@Eigen@@V12@N@internal@Eigen@@YAXAEAV?$DenseBase@V?$Block@V?$Matrix@N$01$01$0A@$01$01@Eigen@@$00$01$0A@@Eigen@@@1@0AEBV?$JacobiRotation@N@1@@Z
	??$apply_rotation_in_the_plane@V?$Block@V?$Matrix@N$01$01$0A@$01$01@Eigen@@$01$00$00@Eigen@@V12@N@internal@Eigen@@YAXAEAV?$DenseBase@V?$Block@V?$Matrix@N$01$01$0A@$01$01@Eigen@@$01$00$00@Eigen@@@1@0AEBV?$JacobiRotation@N@1@@Z
	??$apply_rotation_in_the_plane@V?$Block@V?$Matrix@N$02$02$0A@$02$02@Eigen@@$02$00$00@Eigen@@V12@N@internal@Eigen@@YAXAEAV?$DenseBase@V?$Block@V?$Matrix@N$02$02$0A@$02$02@Eigen@@$02$00$00@Eigen@@@1@0AEBV?$JacobiRotation@N@1@@Z
	??$apply_rotation_in_the_plane@V?$Block@V?$Matrix@N$0?0$0?0$0A@$0?0$0?0@Eigen@@$0?0$00$00@Eigen@@V12@N@internal@Eigen@@YAXAEAV?$DenseBase@V?$Block@V?$Matrix@N$0?0$0?0$0A@$0?0$0?0@Eigen@@$0?0$00$00@Eigen@@@1@0AEBV?$JacobiRotation@N@1@@Z
	??$assignDiagonal@V?$CwiseBinaryOp@U?$scalar_product_op@NN@internal@Eigen@@$$CBV?$Matrix@N$0?0$00$0A@$0?0$00@3@$$CBV43@@Eigen@@U?$assign_op@NN@internal@2@@?$SparseMatrix@N$0A@H@Eigen@@IEAAXV?$CwiseBinaryOp@U?$scalar_product_op@NN@internal@Eigen@@$$CBV?$Matrix@N$0?0$00$0A@$0?0$00@3@$$CBV43@@1@AEBU?$assign_op@NN@internal@1@@Z
	??$check_static_allocation_size@H$01@internal@Eigen@@YAXXZ
	??$check_static_allocation_size@N$00@internal@Eigen@@YAXXZ
	??$check_static_allocation_size@N$01@internal@Eigen@@YAXXZ
	??$check_static_allocation_size@N$02@internal@Eigen@@YAXXZ
	??$check_static_allocation_size@N$03@internal@Eigen@@YAXXZ
	??$check_static_allocation_size@N$05@internal@Eigen@@YAXXZ
	??$check_static_allocation_size@N$08@internal@Eigen@@YAXXZ
	??$check_static_allocation_size@N$0EA@@internal@Eigen@@YAXXZ
	??$check_static_allocation_size@_J$01@internal@Eigen@@YAXXZ
	??$compute@V?$CwiseBinaryOp@U?$scalar_quotient_op@NN@internal@Eigen@@$$CBV?$Matrix@N$0?0$0?0$0A@$0?0$0?0@3@$$CBV?$CwiseNullaryOp@U?$scalar_constant_op@N@internal@Eigen@@$$CBV?$Matrix@N$0?0$0?0$0A@$0?0$0?0@3@@3@@Eigen@@@?$HessenbergDecomposition@V?$Matrix@N$0?0$0?0$0A@$0?0$0?0@Eigen@@@Eigen@@QEAAAEAV01@AEBU?$EigenBase@V?$CwiseBinaryOp@U?$scalar_quotient_op@NN@internal@Eigen@@$$CBV?$Matrix@N$0?0$0?0$0A@$0?0$0?0@3@$$CBV?$CwiseNullaryOp@U?$scalar_constant_op@N@internal@Eigen@@$$CBV?$Matrix@N$0?0$0?0$0A@$0?0$0?0@3@@3@@Eigen@@@1@@Z
	??$compute@V?$Matrix@N$02$01$0A@$02$01@Eigen@@@?$ColPivHouseholderQR@V?$Matrix@N$02$01$0A@$02$01@Eigen@@@Eigen@@QEAAAEAV01@AEBU?$EigenBase@V?$Matrix@N$02$01$0A@$02$01@Eigen@@@1@@Z
	??$compute@V?$Matrix@N$0?0$0?0$0A@$0?0$0?0@Eigen@@@?$EigenSolver@V?$Matrix@N$0?0$0?0$0A@$0?0$0?0@Eigen@@@Eigen@@QEAAAEAV01@AEBU?$EigenBase@V?$Matrix@N$0?0$0?0$0A@$0?0$0?0@Eigen@@@1@_N@Z
	??$compute@V?$Matrix@N$0?0$0?0$0A@$0?0$0?0@Eigen@@@?$RealSchur@V?$Matrix@N$0?0$0?0$0A@$0?0$0?0@Eigen@@@Eigen@@QEAAAEAV01@AEBU?$EigenBase@V?$Matrix@N$0?0$0?0$0A@$0?0$0?0@Eigen@@@1@_N@Z
	??$computeFromHessenberg@U?$HessenbergDecompositionMatrixHReturnType@V?$Matrix@N$0?0$0?0$0A@$0?0$0?0@Eigen@@@internal@Eigen@@V?$Matrix@N$0?0$0?0$0A@$0?0$0?0@3@@?$RealSchur@V?$Matrix@N$0?0$0?0$0A@$0?0$0?0@Eigen@@@Eigen@@QEAAAEAV01@AEBU?$HessenbergDecompositionMatrixHReturnType@V?$Matrix@N$0?0$0?0$0A@$0?0$0?0@Eigen@@@internal@1@AEBV?$Matrix@N$0?0$0?0$0A@$0?0$0?0@1@_N@Z
	??$computeProductBlockingSizes@NN$03_J@internal@Eigen@@YAXAEA_J00_J@Z
	??$computeProductBlockingSizes@V?$complex@N@std@@V12@$00_J@internal@Eigen@@YAXAEA_J00_J@Z
	??$computeProductBlockingSizes@V?$complex@N@std@@V12@$03_J@internal@Eigen@@YAXAEA_J00_J@Z
	??$conditional_aligned_new_auto@H$00@internal@Eigen@@YAPEAH_K@Z
	??$conditional_aligned_new_auto@N$00@internal@Eigen@@YAPEAN_K@Z
	??$conditional_aligned_new_auto@V?$complex@N@std@@$00@internal@Eigen@@YAPEAV?$complex@N@std@@_K@Z
	??$div_ceil@_J@numext@Eigen@@YA_JAEB_J0@Z
	??$dot@V?$Block@$$CBV?$Block@$$CBV?$Matrix@N$0?0$0?0$0A@$0?0$0?0@Eigen@@$0?0$00$0A@@Eigen@@$0?0$00$00@Eigen@@@?$MatrixBase@V?$Block@$$CBV?$Block@V?$Block@V?$Matrix@N$0?0$0?0$0A@$0?0$0?0@Eigen@@$0?0$0?0$0A@@Eigen@@$0?0$0?0$0A@@Eigen@@$00$0?0$0A@@Eigen@@@Eigen@@QEBANAEBV?$MatrixBase@V?$Block@$$CBV?$Block@$$CBV?$Matrix@N$0?0$0?0$0A@$0?0$0?0@Eigen@@$0?0$00$0A@@Eigen@@$0?0$00$00@Eigen@@@1@@Z
	??$dot@V?$Block@$$CBV?$Block@$$CBV?$Matrix@V?$complex@N@std@@$0?0$0?0$0A@$0?0$0?0@Eigen@@$0?0$00$00@Eigen@@$0?0$00$00@Eigen@@@?$MatrixBase@V?$CwiseUnaryOp@U?$scalar_conjugate_op@V?$complex@N@std@@@internal@Eigen@@$$CBV?$Block@$$CBV?$Product@V?$Matrix@V?$complex@N@std@@$0?0$0?0$0A@$0?0$0?0@Eigen@@V?$DiagonalWrapper@$$CBV?$Matrix@V?$complex@N@std@@$0?0$00$0A@$0?0$00@Eigen@@@2@$00@Eigen@@$00$0?0$0A@@3@@Eigen@@@Eigen@@QEBA?AV?$complex@N@std@@AEBV?$MatrixBase@V?$Block@$$CBV?$Block@$$CBV?$Matrix@V?$complex@N@std@@$0?0$0?0$0A@$0?0$0?0@Eigen@@$0?0$00$00@Eigen@@$0?0$00$00@Eigen@@@1@@Z
	??$dot@V?$Block@$$CBV?$Block@$$CBV?$Ref@V?$Matrix@V?$complex@N@std@@$0?0$0?0$0A@$0?0$0?0@Eigen@@$0A@V?$OuterStride@$0?0@2@@Eigen@@$0?0$00$00@Eigen@@$0?0$00$00@Eigen@@@?$MatrixBase@V?$CwiseUnaryOp@U?$scalar_conjugate_op@V?$complex@N@std@@@internal@Eigen@@$$CBV?$Block@$$CBV?$Ref@V?$Matrix@V?$complex@N@std@@$0?0$0?0$0A@$0?0$0?0@Eigen@@$0A@V?$OuterStride@$0?0@2@@Eigen@@$00$0?0$0A@@3@@Eigen@@@Eigen@@QEBA?AV?$complex@N@std@@AEBV?$MatrixBase@V?$Block@$$CBV?$Block@$$CBV?$Ref@V?$Matrix@V?$complex@N@std@@$0?0$0?0$0A@$0?0$0?0@Eigen@@$0A@V?$OuterStride@$0?0@2@@Eigen@@$0?0$00$00@Eigen@@$0?0$00$00@Eigen@@@1@@Z
	??$dot@V?$Block@$$CBV?$Block@V?$Block@V?$Matrix@N$0?0$0?0$0A@$0?0$0?0@Eigen@@$0?0$00$00@Eigen@@$0?0$00$0A@@Eigen@@$0?0$00$00@Eigen@@@?$MatrixBase@V?$Block@$$CBV?$Block@V?$Block@V?$Matrix@N$0?0$0?0$0A@$0?0$0?0@Eigen@@$0?0$0?0$00@Eigen@@$0?0$0?0$0A@@Eigen@@$00$0?0$0A@@Eigen@@@Eigen@@QEBANAEBV?$MatrixBase@V?$Block@$$CBV?$Block@V?$Block@V?$Matrix@N$0?0$0?0$0A@$0?0$0?0@Eigen@@$0?0$00$00@Eigen@@$0?0$00$0A@@Eigen@@$0?0$00$00@Eigen@@@1@@Z
	??$dot@V?$Block@$$CBV?$Block@V?$Block@V?$Matrix@N$0?0$0?0$0A@$0?0$0?0@Eigen@@$0?0$00$00@Eigen@@$0?0$00$0A@@Eigen@@$0?0$00$00@Eigen@@@?$MatrixBase@V?$Block@$$CBV?$Block@V?$Matrix@N$0?0$0?0$0A@$0?0$0?0@Eigen@@$0?0$0?0$00@Eigen@@$00$0?0$0A@@Eigen@@@Eigen@@QEBANAEBV?$MatrixBase@V?$Block@$$CBV?$Block@V?$Block@V?$Matrix@N$0?0$0?0$0A@$0?0$0?0@Eigen@@$0?0$00$00@Eigen@@$0?0$00$0A@@Eigen@@$0?0$00$00@Eigen@@@1@@Z
	??$dot@V?$Block@$$CBV?$Block@V?$Block@V?$Matrix@N$0?0$0?0$0A@$0?0$0?0@Eigen@@$0?0$0?0$0A@@Eigen@@$0?0$0?0$0A@@Eigen@@$0?0$00$00@Eigen@@@?$MatrixBase@V?$Block@$$CBV?$Transpose@$$CBV?$Block@$$CBV?$Matrix@N$0?0$0?0$0A@$0?0$0?0@Eigen@@$0?0$00$0A@@Eigen@@@Eigen@@$00$0?0$00@Eigen@@@Eigen@@QEBANAEBV?$MatrixBase@V?$Block@$$CBV?$Block@V?$Block@V?$Matrix@N$0?0$0?0$0A@$0?0$0?0@Eigen@@$0?0$0?0$0A@@Eigen@@$0?0$0?0$0A@@Eigen@@$0?0$00$00@Eigen@@@1@@Z
	??$dot@V?$Block@$$CBV?$Block@V?$Block@V?$Matrix@N$0?0$0?0$0A@$0?0$0?0@Eigen@@$0?0$0?0$0A@@Eigen@@$0?0$0?0$0A@@Eigen@@$0?0$00$00@Eigen@@@?$MatrixBase@V?$Block@$$CBV?$Transpose@$$CBV?$Block@V?$Block@V?$Matrix@N$0?0$0?0$0A@$0?0$0?0@Eigen@@$0?0$00$00@Eigen@@$0?0$00$0A@@Eigen@@@Eigen@@$00$0?0$00@Eigen@@@Eigen@@QEBANAEBV?$MatrixBase@V?$Block@$$CBV?$Block@V?$Block@V?$Matrix@N$0?0$0?0$0A@$0?0$0?0@Eigen@@$0?0$0?0$0A@@Eigen@@$0?0$0?0$0A@@Eigen@@$0?0$00$00@Eigen@@@1@@Z
	??$dot@V?$Block@$$CBV?$Matrix@N$0?0$00$0A@$0?0$00@Eigen@@$0?0$00$00@Eigen@@@?$MatrixBase@V?$CwiseUnaryOp@U?$scalar_conjugate_op@V?$complex@N@std@@@internal@Eigen@@$$CBV?$Block@$$CBV?$Matrix@V?$complex@N@std@@$0?0$0?0$0A@$0?0$0?0@Eigen@@$00$0?0$0A@@3@@Eigen@@@Eigen@@QEBA?AV?$complex@N@std@@AEBV?$MatrixBase@V?$Block@$$CBV?$Matrix@N$0?0$00$0A@$0?0$00@Eigen@@$0?0$00$00@Eigen@@@1@@Z
	??$dot@V?$Block@$$CBV?$Matrix@V?$complex@N@std@@$0?0$00$0A@$0?0$00@Eigen@@$0?0$00$00@Eigen@@@?$MatrixBase@V?$CwiseUnaryOp@U?$scalar_conjugate_op@V?$complex@N@std@@@internal@Eigen@@$$CBV?$Block@$$CBV?$Matrix@V?$complex@N@std@@$0?0$0?0$0A@$0?0$0?0@Eigen@@$00$0?0$0A@@3@@Eigen@@@Eigen@@QEBA?AV?$complex@N@std@@AEBV?$MatrixBase@V?$Block@$$CBV?$Matrix@V?$complex@N@std@@$0?0$00$0A@$0?0$00@Eigen@@$0?0$00$00@Eigen@@@1@@Z
	??$dot@V?$Block@$$CBV?$Matrix@V?$complex@N@std@@$0?0$0?0$0A@$0?0$0?0@Eigen@@$0?0$00$00@Eigen@@@?$MatrixBase@V?$CwiseUnaryOp@U?$scalar_conjugate_op@V?$complex@N@std@@@internal@Eigen@@$$CBV?$Block@$$CBV?$Block@$$CBV?$Product@V?$Matrix@V?$complex@N@std@@$0?0$0?0$0A@$0?0$0?0@Eigen@@V?$DiagonalWrapper@$$CBV?$Matrix@V?$complex@N@std@@$0?0$00$0A@$0?0$00@Eigen@@@2@$00@Eigen@@$00$0?0$0A@@Eigen@@$00$0?0$00@3@@Eigen@@@Eigen@@QEBA?AV?$complex@N@std@@AEBV?$MatrixBase@V?$Block@$$CBV?$Matrix@V?$complex@N@std@@$0?0$0?0$0A@$0?0$0?0@Eigen@@$0?0$00$00@Eigen@@@1@@Z
	??$dot@V?$Block@$$CBV?$Ref@V?$Matrix@V?$complex@N@std@@$0?0$0?0$0A@$0?0$0?0@Eigen@@$0A@V?$OuterStride@$0?0@2@@Eigen@@$0?0$00$00@Eigen@@@?$MatrixBase@V?$CwiseUnaryOp@U?$scalar_conjugate_op@V?$complex@N@std@@@internal@Eigen@@$$CBV?$Block@$$CBV?$Block@$$CBV?$Ref@V?$Matrix@V?$complex@N@std@@$0?0$0?0$0A@$0?0$0?0@Eigen@@$0A@V?$OuterStride@$0?0@2@@Eigen@@$00$0?0$0A@@Eigen@@$00$0?0$00@3@@Eigen@@@Eigen@@QEBA?AV?$complex@N@std@@AEBV?$MatrixBase@V?$Block@$$CBV?$Ref@V?$Matrix@V?$complex@N@std@@$0?0$0?0$0A@$0?0$0?0@Eigen@@$0A@V?$OuterStride@$0?0@2@@Eigen@@$0?0$00$00@Eigen@@@1@@Z
	??$dot@V?$Block@V?$Block@V?$Matrix@N$0?0$0?0$0A@$0?0$0?0@Eigen@@$0?0$00$00@Eigen@@$0?0$00$0A@@Eigen@@@?$MatrixBase@V?$Block@V?$Block@V?$Matrix@N$0?0$0?0$0A@$0?0$0?0@Eigen@@$00$0?0$0A@@Eigen@@$00$0?0$0A@@Eigen@@@Eigen@@QEBANAEBV?$MatrixBase@V?$Block@V?$Block@V?$Matrix@N$0?0$0?0$0A@$0?0$0?0@Eigen@@$0?0$00$00@Eigen@@$0?0$00$0A@@Eigen@@@1@@Z
	??$dot@V?$Matrix@N$02$00$0A@$02$00@Eigen@@@?$MatrixBase@V?$Matrix@N$02$00$0A@$02$00@Eigen@@@Eigen@@QEBANAEBV01@@Z
	??$emplace@AEBU?$pair@HH@std@@@?$_Hash@V?$_Uset_traits@U?$pair@HH@std@@V?$_Uhash_compare@U?$pair@HH@std@@U?$hash@U?$pair@HH@std@@@2@U?$equal_to@U?$pair@HH@std@@@2@@2@V?$allocator@U?$pair@HH@std@@@2@$0A@@std@@@std@@QEAA?AU?$pair@V?$_List_const_iterator@V?$_List_val@U?$_List_simple_types@U?$pair@HH@std@@@std@@@std@@@std@@_N@1@AEBU?$pair@HH@1@@Z
	??$emplace@U?$pair@QEBVNode@pwd@@H@std@@@?$_Hash@V?$_Umap_traits@PEBVNode@pwd@@HV?$_Uhash_compare@PEBVNode@pwd@@U?$hash@PEBVNode@pwd@@@std@@U?$equal_to@PEBVNode@pwd@@@4@@std@@V?$allocator@U?$pair@QEBVNode@pwd@@H@std@@@4@$0A@@std@@@std@@QEAA?AU?$pair@V?$_List_iterator@V?$_List_val@U?$_List_simple_types@U?$pair@QEBVNode@pwd@@H@std@@@std@@@std@@@std@@_N@1@$$QEAU?$pair@QEBVNode@pwd@@H@1@@Z
	??$emplace@U?$pair@QEBVNode@pwd@@_N@std@@@?$_Hash@V?$_Umap_traits@PEBVNode@pwd@@_NV?$_Uhash_compare@PEBVNode@pwd@@U?$hash@PEBVNode@pwd@@@std@@U?$equal_to@PEBVNode@pwd@@@4@@std@@V?$allocator@U?$pair@QEBVNode@pwd@@_N@std@@@4@$0A@@std@@@std@@QEAA?AU?$pair@V?$_List_iterator@V?$_List_val@U?$_List_simple_types@U?$pair@QEBVNode@pwd@@_N@std@@@std@@@std@@@std@@_N@1@$$QEAU?$pair@QEBVNode@pwd@@_N@1@@Z
	??$endl@DU?$char_traits@D@std@@@std@@YAAEAV?$basic_ostream@DU?$char_traits@D@std@@@0@AEAV10@@Z
	??$evalTo@V?$Matrix@N$01$01$0A@$01$01@Eigen@@@?$PermutationBase@V?$PermutationMatrix@$01$01H@Eigen@@@Eigen@@QEBAXAEAV?$MatrixBase@V?$Matrix@N$01$01$0A@$01$01@Eigen@@@1@@Z
	??$evalTo@V?$Matrix@N$02$02$0A@$02$02@Eigen@@V?$Matrix@N$00$02$00$00$02@2@@?$HouseholderSequence@V?$Matrix@N$02$01$0A@$02$01@Eigen@@V?$Matrix@N$01$00$0A@$01$00@2@$00@Eigen@@QEBAXAEAV?$Matrix@N$02$02$0A@$02$02@1@AEAV?$Matrix@N$00$02$00$00$02@1@@Z
	??$evalTo@V?$Matrix@N$0?0$0?0$0A@$0?0$0?0@Eigen@@@?$ReturnByValue@U?$HessenbergDecompositionMatrixHReturnType@V?$Matrix@N$0?0$0?0$0A@$0?0$0?0@Eigen@@@internal@Eigen@@@Eigen@@QEBAXAEAV?$Matrix@N$0?0$0?0$0A@$0?0$0?0@1@@Z
	??$evalTo@V?$Matrix@N$0?0$0?0$0A@$0?0$0?0@Eigen@@V?$Matrix@N$0?0$00$0A@$0?0$00@2@@?$HouseholderSequence@V?$Matrix@N$0?0$0?0$0A@$0?0$0?0@Eigen@@V?$Matrix@N$0?0$00$0A@$0?0$00@2@$00@Eigen@@QEBAXAEAV?$Matrix@N$0?0$0?0$0A@$0?0$0?0@1@AEAV?$Matrix@N$0?0$00$0A@$0?0$00@1@@Z
	??$evaluateProductBlockingSizesHeuristic@NN$03_J@internal@Eigen@@YAXAEA_J00_J@Z
	??$evaluateProductBlockingSizesHeuristic@V?$complex@N@std@@V12@$00_J@internal@Eigen@@YAXAEA_J00_J@Z
	??$evaluateProductBlockingSizesHeuristic@V?$complex@N@std@@V12@$03_J@internal@Eigen@@YAXAEA_J00_J@Z
	??$exp@N@std@@YA?AV?$complex@N@0@AEBV10@@Z
	??$fill@PEAV?$_List_unchecked_const_iterator@V?$_List_val@U?$_List_simple_types@U?$pair@HH@std@@@std@@@std@@U_Iterator_base0@2@@std@@V12@@std@@YAXQEAV?$_List_unchecked_const_iterator@V?$_List_val@U?$_List_simple_types@U?$pair@HH@std@@@std@@@std@@U_Iterator_base0@2@@0@0AEBV10@@Z
	??$fill@PEAV?$_List_unchecked_iterator@V?$_List_val@U?$_List_simple_types@U?$pair@QEBVNode@pwd@@H@std@@@std@@@std@@@std@@V12@@std@@YAXQEAV?$_List_unchecked_iterator@V?$_List_val@U?$_List_simple_types@U?$pair@QEBVNode@pwd@@H@std@@@std@@@std@@@0@0AEBV10@@Z
	??$fill@PEAV?$_List_unchecked_iterator@V?$_List_val@U?$_List_simple_types@U?$pair@QEBVNode@pwd@@_N@std@@@std@@@std@@@std@@V12@@std@@YAXQEAV?$_List_unchecked_iterator@V?$_List_val@U?$_List_simple_types@U?$pair@QEBVNode@pwd@@_N@std@@@std@@@std@@@0@0AEBV10@@Z
	??$fill_n@PEAN_JN@std@@YAPEANPEAN_JAEBN@Z
	??$get_runtime_value@H@internal@Eigen@@YA_JAEBH@Z
	??$get_runtime_value@V?$VariableAndFixedInt@$0?0@internal@Eigen@@@internal@Eigen@@YA_JAEBV?$VariableAndFixedInt@$0?0@01@@Z
	??$get_runtime_value@_J@internal@Eigen@@YA_JAEB_J@Z
	??$getline@DU?$char_traits@D@std@@V?$allocator@D@2@@std@@YAAEAV?$basic_istream@DU?$char_traits@D@std@@@0@$$QEAV10@AEAV?$basic_string@DU?$char_traits@D@std@@V?$allocator@D@2@@0@D@Z
	??$getline@DU?$char_traits@D@std@@V?$allocator@D@2@@std@@YAAEAV?$basic_istream@DU?$char_traits@D@std@@@0@AEAV10@AEAV?$basic_string@DU?$char_traits@D@std@@V?$allocator@D@2@@0@@Z
	??$is_same_dense@V?$Matrix@N$02$02$0A@$02$02@Eigen@@V?$Matrix@N$02$01$0A@$02$01@2@@internal@Eigen@@YA_NAEBV?$Matrix@N$02$02$0A@$02$02@1@AEBV?$Matrix@N$02$01$0A@$02$01@1@PEAX@Z
	??$is_same_dense@V?$Matrix@N$0?0$0?0$0A@$0?0$0?0@Eigen@@V12@@internal@Eigen@@YA_NAEBV?$Matrix@N$0?0$0?0$0A@$0?0$0?0@1@0PEAX@Z
	??$is_same_dense@V?$Matrix@V?$complex@N@std@@$0?0$0?0$0A@$0?0$0?0@Eigen@@V?$CwiseNullaryOp@U?$scalar_identity_op@V?$complex@N@std@@@internal@Eigen@@V?$Matrix@V?$complex@N@std@@$0?0$0?0$0A@$0?0$0?0@3@@2@@internal@Eigen@@YA_NAEBV?$Matrix@V?$complex@N@std@@$0?0$0?0$0A@$0?0$0?0@1@AEBV?$CwiseNullaryOp@U?$scalar_identity_op@V?$complex@N@std@@@internal@Eigen@@V?$Matrix@V?$complex@N@std@@$0?0$0?0$0A@$0?0$0?0@3@@1@PEAX@Z
	??$isfinite@N@numext@Eigen@@YA_NAEBN@Z
	??$isfinite@V?$complex@N@std@@@numext@Eigen@@YA_NAEBV?$complex@N@std@@@Z
	??$isfinite_impl@N@internal@Eigen@@YA_NAEBN@Z
	??$isfinite_impl@N@internal@Eigen@@YA_NAEBV?$complex@N@std@@@Z
	??$lazyProduct@V?$Block@$$CBV?$Matrix@N$02$01$0A@$02$01@Eigen@@$0?0$00$0A@@Eigen@@@?$MatrixBase@V?$Block@V?$Block@V?$Matrix@N$02$02$0A@$02$02@Eigen@@$0?0$0?0$0A@@Eigen@@$0?0$0?0$0A@@Eigen@@@Eigen@@QEBA?BV?$Product@V?$Block@V?$Block@V?$Matrix@N$02$02$0A@$02$02@Eigen@@$0?0$0?0$0A@@Eigen@@$0?0$0?0$0A@@Eigen@@V?$Block@$$CBV?$Matrix@N$02$01$0A@$02$01@Eigen@@$0?0$00$0A@@2@$00@1@AEBV?$MatrixBase@V?$Block@$$CBV?$Matrix@N$02$01$0A@$02$01@Eigen@@$0?0$00$0A@@Eigen@@@1@@Z
	??$lazyProduct@V?$Block@V?$Block@V?$Matrix@N$02$01$0A@$02$01@Eigen@@$0?0$0?0$0A@@Eigen@@$0?0$0?0$0A@@Eigen@@@?$MatrixBase@V?$Transpose@$$CBV?$Block@V?$Block@V?$Matrix@N$02$01$0A@$02$01@Eigen@@$02$00$00@Eigen@@$0?0$00$0A@@Eigen@@@Eigen@@@Eigen@@QEBA?BV?$Product@V?$Transpose@$$CBV?$Block@V?$Block@V?$Matrix@N$02$01$0A@$02$01@Eigen@@$02$00$00@Eigen@@$0?0$00$0A@@Eigen@@@Eigen@@V?$Block@V?$Block@V?$Matrix@N$02$01$0A@$02$01@Eigen@@$0?0$0?0$0A@@Eigen@@$0?0$0?0$0A@@2@$00@1@AEBV?$MatrixBase@V?$Block@V?$Block@V?$Matrix@N$02$01$0A@$02$01@Eigen@@$0?0$0?0$0A@@Eigen@@$0?0$0?0$0A@@Eigen@@@1@@Z
	??$lazyProduct@V?$Block@V?$Block@V?$Matrix@N$02$02$0A@$02$02@Eigen@@$0?0$0?0$0A@@Eigen@@$0?0$0?0$0A@@Eigen@@@?$MatrixBase@V?$Transpose@$$CBV?$Block@$$CBV?$Matrix@N$02$01$0A@$02$01@Eigen@@$0?0$00$0A@@Eigen@@@Eigen@@@Eigen@@QEBA?BV?$Product@V?$Transpose@$$CBV?$Block@$$CBV?$Matrix@N$02$01$0A@$02$01@Eigen@@$0?0$00$0A@@Eigen@@@Eigen@@V?$Block@V?$Block@V?$Matrix@N$02$02$0A@$02$02@Eigen@@$0?0$0?0$0A@@Eigen@@$0?0$0?0$0A@@2@$00@1@AEBV?$MatrixBase@V?$Block@V?$Block@V?$Matrix@N$02$02$0A@$02$02@Eigen@@$0?0$0?0$0A@@Eigen@@$0?0$0?0$0A@@Eigen@@@1@@Z
	??$lazyProduct@V?$Block@V?$Block@V?$Matrix@N$0?0$0?0$0A@$0?0$0?0@Eigen@@$0?0$0?0$0A@@Eigen@@$00$0?0$0A@@Eigen@@@?$MatrixBase@V?$Transpose@$$CBV?$Matrix@N$00$00$0A@$00$00@Eigen@@@Eigen@@@Eigen@@QEBA?BV?$Product@V?$Transpose@$$CBV?$Matrix@N$00$00$0A@$00$00@Eigen@@@Eigen@@V?$Block@V?$Block@V?$Matrix@N$0?0$0?0$0A@$0?0$0?0@Eigen@@$0?0$0?0$0A@@Eigen@@$00$0?0$0A@@2@$00@1@AEBV?$MatrixBase@V?$Block@V?$Block@V?$Matrix@N$0?0$0?0$0A@$0?0$0?0@Eigen@@$0?0$0?0$0A@@Eigen@@$00$0?0$0A@@Eigen@@@1@@Z
	??$lazyProduct@V?$Block@V?$Block@V?$Matrix@N$0?0$0?0$0A@$0?0$0?0@Eigen@@$0?0$0?0$0A@@Eigen@@$01$0?0$0A@@Eigen@@@?$MatrixBase@V?$Transpose@$$CBV?$Matrix@N$01$00$0A@$01$00@Eigen@@@Eigen@@@Eigen@@QEBA?BV?$Product@V?$Transpose@$$CBV?$Matrix@N$01$00$0A@$01$00@Eigen@@@Eigen@@V?$Block@V?$Block@V?$Matrix@N$0?0$0?0$0A@$0?0$0?0@Eigen@@$0?0$0?0$0A@@Eigen@@$01$0?0$0A@@2@$00@1@AEBV?$MatrixBase@V?$Block@V?$Block@V?$Matrix@N$0?0$0?0$0A@$0?0$0?0@Eigen@@$0?0$0?0$0A@@Eigen@@$01$0?0$0A@@Eigen@@@1@@Z
	??$lazyProduct@V?$Map@V?$Matrix@N$00$0?0$00$00$01@Eigen@@$0A@V?$Stride@$0A@$0A@@2@@Eigen@@@?$MatrixBase@V?$CwiseBinaryOp@U?$scalar_product_op@NN@internal@Eigen@@$$CBV?$CwiseNullaryOp@U?$scalar_constant_op@N@internal@Eigen@@$$CBV?$Matrix@N$0?0$00$0A@$02$00@3@@3@$$CBV?$Block@V?$Block@V?$Matrix@N$02$01$0A@$02$01@Eigen@@$02$00$00@Eigen@@$0?0$00$0A@@3@@Eigen@@@Eigen@@QEBA?BV?$Product@V?$CwiseBinaryOp@U?$scalar_product_op@NN@internal@Eigen@@$$CBV?$CwiseNullaryOp@U?$scalar_constant_op@N@internal@Eigen@@$$CBV?$Matrix@N$0?0$00$0A@$02$00@3@@3@$$CBV?$Block@V?$Block@V?$Matrix@N$02$01$0A@$02$01@Eigen@@$02$00$00@Eigen@@$0?0$00$0A@@3@@Eigen@@V?$Map@V?$Matrix@N$00$0?0$00$00$01@Eigen@@$0A@V?$Stride@$0A@$0A@@2@@2@$00@1@AEBV?$MatrixBase@V?$Map@V?$Matrix@N$00$0?0$00$00$01@Eigen@@$0A@V?$Stride@$0A@$0A@@2@@Eigen@@@1@@Z
	??$lazyProduct@V?$Map@V?$Matrix@N$00$0?0$00$00$02@Eigen@@$0A@V?$Stride@$0A@$0A@@2@@Eigen@@@?$MatrixBase@V?$CwiseBinaryOp@U?$scalar_product_op@NN@internal@Eigen@@$$CBV?$CwiseNullaryOp@U?$scalar_constant_op@N@internal@Eigen@@$$CBV?$Matrix@N$0?0$00$0A@$02$00@3@@3@$$CBV?$Block@$$CBV?$Matrix@N$02$01$0A@$02$01@Eigen@@$0?0$00$0A@@3@@Eigen@@@Eigen@@QEBA?BV?$Product@V?$CwiseBinaryOp@U?$scalar_product_op@NN@internal@Eigen@@$$CBV?$CwiseNullaryOp@U?$scalar_constant_op@N@internal@Eigen@@$$CBV?$Matrix@N$0?0$00$0A@$02$00@3@@3@$$CBV?$Block@$$CBV?$Matrix@N$02$01$0A@$02$01@Eigen@@$0?0$00$0A@@3@@Eigen@@V?$Map@V?$Matrix@N$00$0?0$00$00$02@Eigen@@$0A@V?$Stride@$0A@$0A@@2@@2@$00@1@AEBV?$MatrixBase@V?$Map@V?$Matrix@N$00$0?0$00$00$02@Eigen@@$0A@V?$Stride@$0A@$0A@@2@@Eigen@@@1@@Z
	??$lazyProduct@V?$Map@V?$Matrix@N$00$0?0$00$00$0?0@Eigen@@$0A@V?$Stride@$0A@$0A@@2@@Eigen@@@?$MatrixBase@V?$CwiseBinaryOp@U?$scalar_product_op@NN@internal@Eigen@@$$CBV?$CwiseNullaryOp@U?$scalar_constant_op@N@internal@Eigen@@$$CBV?$Matrix@N$00$00$0A@$00$00@3@@3@$$CBV?$Matrix@N$00$00$0A@$00$00@3@@Eigen@@@Eigen@@QEBA?BV?$Product@V?$CwiseBinaryOp@U?$scalar_product_op@NN@internal@Eigen@@$$CBV?$CwiseNullaryOp@U?$scalar_constant_op@N@internal@Eigen@@$$CBV?$Matrix@N$00$00$0A@$00$00@3@@3@$$CBV?$Matrix@N$00$00$0A@$00$00@3@@Eigen@@V?$Map@V?$Matrix@N$00$0?0$00$00$0?0@Eigen@@$0A@V?$Stride@$0A@$0A@@2@@2@$00@1@AEBV?$MatrixBase@V?$Map@V?$Matrix@N$00$0?0$00$00$0?0@Eigen@@$0A@V?$Stride@$0A@$0A@@2@@Eigen@@@1@@Z
	??$lazyProduct@V?$Map@V?$Matrix@N$00$0?0$00$00$0?0@Eigen@@$0A@V?$Stride@$0A@$0A@@2@@Eigen@@@?$MatrixBase@V?$CwiseBinaryOp@U?$scalar_product_op@NN@internal@Eigen@@$$CBV?$CwiseNullaryOp@U?$scalar_constant_op@N@internal@Eigen@@$$CBV?$Matrix@N$01$00$0A@$01$00@3@@3@$$CBV?$Matrix@N$01$00$0A@$01$00@3@@Eigen@@@Eigen@@QEBA?BV?$Product@V?$CwiseBinaryOp@U?$scalar_product_op@NN@internal@Eigen@@$$CBV?$CwiseNullaryOp@U?$scalar_constant_op@N@internal@Eigen@@$$CBV?$Matrix@N$01$00$0A@$01$00@3@@3@$$CBV?$Matrix@N$01$00$0A@$01$00@3@@Eigen@@V?$Map@V?$Matrix@N$00$0?0$00$00$0?0@Eigen@@$0A@V?$Stride@$0A@$0A@@2@@2@$00@1@AEBV?$MatrixBase@V?$Map@V?$Matrix@N$00$0?0$00$00$0?0@Eigen@@$0A@V?$Stride@$0A@$0A@@2@@Eigen@@@1@@Z
	??$lazyProduct@V?$Matrix@N$00$00$0A@$00$00@Eigen@@@?$MatrixBase@V?$Block@V?$Block@V?$Matrix@N$0?0$0?0$0A@$0?0$0?0@Eigen@@$0?0$0?0$0A@@Eigen@@$0?0$00$0A@@Eigen@@@Eigen@@QEBA?BV?$Product@V?$Block@V?$Block@V?$Matrix@N$0?0$0?0$0A@$0?0$0?0@Eigen@@$0?0$0?0$0A@@Eigen@@$0?0$00$0A@@Eigen@@V?$Matrix@N$00$00$0A@$00$00@2@$00@1@AEBV?$MatrixBase@V?$Matrix@N$00$00$0A@$00$00@Eigen@@@1@@Z
	??$lazyProduct@V?$Matrix@N$01$00$0A@$01$00@Eigen@@@?$MatrixBase@V?$Block@V?$Block@V?$Matrix@N$0?0$0?0$0A@$0?0$0?0@Eigen@@$0?0$0?0$0A@@Eigen@@$0?0$01$0A@@Eigen@@@Eigen@@QEBA?BV?$Product@V?$Block@V?$Block@V?$Matrix@N$0?0$0?0$0A@$0?0$0?0@Eigen@@$0?0$0?0$0A@@Eigen@@$0?0$01$0A@@Eigen@@V?$Matrix@N$01$00$0A@$01$00@2@$00@1@AEBV?$MatrixBase@V?$Matrix@N$01$00$0A@$01$00@Eigen@@@1@@Z
	??$lazyProduct@V?$Matrix@V?$complex@N@std@@$0?0$0?0$0A@$0?0$0?0@Eigen@@@?$MatrixBase@V?$Product@V?$Matrix@V?$complex@N@std@@$0?0$0?0$0A@$0?0$0?0@Eigen@@V?$DiagonalWrapper@$$CBV?$Matrix@V?$complex@N@std@@$0?0$00$0A@$0?0$00@Eigen@@@2@$00@Eigen@@@Eigen@@QEBA?BV?$Product@V?$Product@V?$Matrix@V?$complex@N@std@@$0?0$0?0$0A@$0?0$0?0@Eigen@@V?$DiagonalWrapper@$$CBV?$Matrix@V?$complex@N@std@@$0?0$00$0A@$0?0$00@Eigen@@@2@$00@Eigen@@V?$Matrix@V?$complex@N@std@@$0?0$0?0$0A@$0?0$0?0@2@$00@1@AEBV?$MatrixBase@V?$Matrix@V?$complex@N@std@@$0?0$0?0$0A@$0?0$0?0@Eigen@@@1@@Z
	??$lazyProduct@V?$Ref@V?$Matrix@V?$complex@N@std@@$0?0$0?0$0A@$0?0$0?0@Eigen@@$0A@V?$OuterStride@$0?0@2@@Eigen@@@?$MatrixBase@V?$Ref@V?$Matrix@V?$complex@N@std@@$0?0$0?0$0A@$0?0$0?0@Eigen@@$0A@V?$OuterStride@$0?0@2@@Eigen@@@Eigen@@QEBA?BV?$Product@V?$Ref@V?$Matrix@V?$complex@N@std@@$0?0$0?0$0A@$0?0$0?0@Eigen@@$0A@V?$OuterStride@$0?0@2@@Eigen@@V12@$00@1@AEBV01@@Z
	??$lazyProduct@V?$Transpose@$$CBV?$Block@$$CBV?$Matrix@N$02$01$0A@$02$01@Eigen@@$0?0$00$0A@@Eigen@@@Eigen@@@?$MatrixBase@V?$CwiseBinaryOp@U?$scalar_product_op@NN@internal@Eigen@@$$CBV?$CwiseNullaryOp@U?$scalar_constant_op@N@internal@Eigen@@$$CBV?$Matrix@N$0?0$00$0A@$02$00@3@@3@$$CBV?$Map@V?$Matrix@N$0?0$00$0A@$02$00@Eigen@@$0A@V?$Stride@$0A@$0A@@2@@3@@Eigen@@@Eigen@@QEBA?BV?$Product@V?$CwiseBinaryOp@U?$scalar_product_op@NN@internal@Eigen@@$$CBV?$CwiseNullaryOp@U?$scalar_constant_op@N@internal@Eigen@@$$CBV?$Matrix@N$0?0$00$0A@$02$00@3@@3@$$CBV?$Map@V?$Matrix@N$0?0$00$0A@$02$00@Eigen@@$0A@V?$Stride@$0A@$0A@@2@@3@@Eigen@@V?$Transpose@$$CBV?$Block@$$CBV?$Matrix@N$02$01$0A@$02$01@Eigen@@$0?0$00$0A@@Eigen@@@2@$00@1@AEBV?$MatrixBase@V?$Transpose@$$CBV?$Block@$$CBV?$Matrix@N$02$01$0A@$02$01@Eigen@@$0?0$00$0A@@Eigen@@@Eigen@@@1@@Z
	??$lazyProduct@V?$Transpose@$$CBV?$Matrix@N$00$00$0A@$00$00@Eigen@@@Eigen@@@?$MatrixBase@V?$CwiseBinaryOp@U?$scalar_product_op@NN@internal@Eigen@@$$CBV?$CwiseNullaryOp@U?$scalar_constant_op@N@internal@Eigen@@$$CBV?$Matrix@N$0?0$00$0A@$0?0$00@3@@3@$$CBV?$Map@V?$Matrix@N$0?0$00$0A@$0?0$00@Eigen@@$0A@V?$Stride@$0A@$0A@@2@@3@@Eigen@@@Eigen@@QEBA?BV?$Product@V?$CwiseBinaryOp@U?$scalar_product_op@NN@internal@Eigen@@$$CBV?$CwiseNullaryOp@U?$scalar_constant_op@N@internal@Eigen@@$$CBV?$Matrix@N$0?0$00$0A@$0?0$00@3@@3@$$CBV?$Map@V?$Matrix@N$0?0$00$0A@$0?0$00@Eigen@@$0A@V?$Stride@$0A@$0A@@2@@3@@Eigen@@V?$Transpose@$$CBV?$Matrix@N$00$00$0A@$00$00@Eigen@@@2@$00@1@AEBV?$MatrixBase@V?$Transpose@$$CBV?$Matrix@N$00$00$0A@$00$00@Eigen@@@Eigen@@@1@@Z
	??$lazyProduct@V?$Transpose@$$CBV?$Matrix@N$01$00$0A@$01$00@Eigen@@@Eigen@@@?$MatrixBase@V?$CwiseBinaryOp@U?$scalar_product_op@NN@internal@Eigen@@$$CBV?$CwiseNullaryOp@U?$scalar_constant_op@N@internal@Eigen@@$$CBV?$Matrix@N$0?0$00$0A@$0?0$00@3@@3@$$CBV?$Map@V?$Matrix@N$0?0$00$0A@$0?0$00@Eigen@@$0A@V?$Stride@$0A@$0A@@2@@3@@Eigen@@@Eigen@@QEBA?BV?$Product@V?$CwiseBinaryOp@U?$scalar_product_op@NN@internal@Eigen@@$$CBV?$CwiseNullaryOp@U?$scalar_constant_op@N@internal@Eigen@@$$CBV?$Matrix@N$0?0$00$0A@$0?0$00@3@@3@$$CBV?$Map@V?$Matrix@N$0?0$00$0A@$0?0$00@Eigen@@$0A@V?$Stride@$0A@$0A@@2@@3@@Eigen@@V?$Transpose@$$CBV?$Matrix@N$01$00$0A@$01$00@Eigen@@@2@$00@1@AEBV?$MatrixBase@V?$Transpose@$$CBV?$Matrix@N$01$00$0A@$01$00@Eigen@@@Eigen@@@1@@Z
	??$loadQuadToDoublePacket@V?$complex@N@std@@U__m128d@@@internal@Eigen@@YAXPEBV?$complex@N@std@@AEAU?$DoublePacket@U__m128d@@@01@PEAX@Z
	??$makeHouseholder@V?$Matrix@N$00$00$0A@$00$00@Eigen@@@?$MatrixBase@V?$Matrix@N$01$00$0A@$01$00@Eigen@@@Eigen@@QEBAXAEAV?$Matrix@N$00$00$0A@$00$00@1@AEAN1@Z
	??$makeHouseholder@V?$Matrix@N$01$00$0A@$01$00@Eigen@@@?$MatrixBase@V?$Matrix@N$02$00$0A@$02$00@Eigen@@@Eigen@@QEBAXAEAV?$Matrix@N$01$00$0A@$01$00@1@AEAN1@Z
	??$makeHouseholder@V?$VectorBlock@V?$Block@V?$Block@V?$Matrix@N$02$01$0A@$02$01@Eigen@@$02$00$00@Eigen@@$0?0$00$0A@@Eigen@@$0?0@Eigen@@@?$MatrixBase@V?$Block@V?$Block@V?$Matrix@N$02$01$0A@$02$01@Eigen@@$02$00$00@Eigen@@$0?0$00$0A@@Eigen@@@Eigen@@QEBAXAEAV?$VectorBlock@V?$Block@V?$Block@V?$Matrix@N$02$01$0A@$02$01@Eigen@@$02$00$00@Eigen@@$0?0$00$0A@@Eigen@@$0?0@1@AEAN1@Z
	??$makeHouseholder@V?$VectorBlock@V?$Block@V?$Block@V?$Matrix@N$0?0$0?0$0A@$0?0$0?0@Eigen@@$0?0$00$00@Eigen@@$0?0$00$0A@@Eigen@@$0?0@Eigen@@@?$MatrixBase@V?$Block@V?$Block@V?$Matrix@N$0?0$0?0$0A@$0?0$0?0@Eigen@@$0?0$00$00@Eigen@@$0?0$00$0A@@Eigen@@@Eigen@@QEBAXAEAV?$VectorBlock@V?$Block@V?$Block@V?$Matrix@N$0?0$0?0$0A@$0?0$0?0@Eigen@@$0?0$00$00@Eigen@@$0?0$00$0A@@Eigen@@$0?0@1@AEAN1@Z
	??$makeJacobi@V?$Matrix@N$01$01$0A@$01$01@Eigen@@@?$JacobiRotation@N@Eigen@@QEAA_NAEBV?$MatrixBase@V?$Matrix@N$01$01$0A@$01$01@Eigen@@@1@_J1@Z
	??$make_block_householder_triangular_factor@V?$Matrix@N$0?0$0?0$00$0?0$0?0@Eigen@@V?$Block@V?$Matrix@N$02$01$0A@$02$01@Eigen@@$0?0$0?0$0A@@2@V?$Block@$$CBV?$Matrix@N$01$00$0A@$01$00@Eigen@@$0?0$00$0A@@2@@internal@Eigen@@YAXAEAV?$Matrix@N$0?0$0?0$00$0?0$0?0@1@AEBV?$Block@V?$Matrix@N$02$01$0A@$02$01@Eigen@@$0?0$0?0$0A@@1@AEBV?$Block@$$CBV?$Matrix@N$01$00$0A@$01$00@Eigen@@$0?0$00$0A@@1@@Z
	??$make_block_householder_triangular_factor@V?$Matrix@N$0?0$0?0$00$0?0$0?0@Eigen@@V?$Block@V?$Matrix@N$02$01$0A@$02$01@Eigen@@$0?0$0?0$0A@@2@V?$VectorBlock@$$CBV?$Matrix@N$01$00$0A@$01$00@Eigen@@$0?0@2@@internal@Eigen@@YAXAEAV?$Matrix@N$0?0$0?0$00$0?0$0?0@1@AEBV?$Block@V?$Matrix@N$02$01$0A@$02$01@Eigen@@$0?0$0?0$0A@@1@AEBV?$VectorBlock@$$CBV?$Matrix@N$01$00$0A@$01$00@Eigen@@$0?0@1@@Z
	??$make_block_householder_triangular_factor@V?$Matrix@N$0?0$0?0$00$0?0$0?0@Eigen@@V?$Block@V?$Matrix@N$0?0$0?0$0A@$0?0$0?0@Eigen@@$0?0$0?0$0A@@2@V?$Block@$$CBV?$Matrix@N$0?0$00$0A@$0?0$00@Eigen@@$0?0$00$0A@@2@@internal@Eigen@@YAXAEAV?$Matrix@N$0?0$0?0$00$0?0$0?0@1@AEBV?$Block@V?$Matrix@N$0?0$0?0$0A@$0?0$0?0@Eigen@@$0?0$0?0$0A@@1@AEBV?$Block@$$CBV?$Matrix@N$0?0$00$0A@$0?0$00@Eigen@@$0?0$00$0A@@1@@Z
	??$make_block_householder_triangular_factor@V?$Matrix@N$0?0$0?0$00$0?0$0?0@Eigen@@V?$Block@V?$Matrix@N$0?0$0?0$0A@$0?0$0?0@Eigen@@$0?0$0?0$0A@@2@V?$VectorBlock@$$CBV?$Matrix@N$0?0$00$0A@$0?0$00@Eigen@@$0?0@2@@internal@Eigen@@YAXAEAV?$Matrix@N$0?0$0?0$00$0?0$0?0@1@AEBV?$Block@V?$Matrix@N$0?0$0?0$0A@$0?0$0?0@Eigen@@$0?0$0?0$0A@@1@AEBV?$VectorBlock@$$CBV?$Matrix@N$0?0$00$0A@$0?0$00@Eigen@@$0?0@1@@Z
	??$maxCoeff@$00@?$DenseBase@V?$CwiseUnaryOp@U?$scalar_abs_op@N@internal@Eigen@@$$CBV?$Matrix@N$01$02$0A@$01$02@3@@Eigen@@@Eigen@@QEBANXZ
	??$maxCoeff@$0A@@?$DenseBase@V?$CwiseUnaryOp@U?$scalar_abs_op@N@internal@Eigen@@$$CBV?$Matrix@N$0?0$0?0$0A@$0?0$0?0@3@@Eigen@@@Eigen@@QEBANXZ
	??$maxCoeff@$0A@@?$DenseBase@V?$Diagonal@$$CBV?$CwiseUnaryOp@U?$scalar_abs_op@N@internal@Eigen@@$$CBV?$Matrix@N$01$01$0A@$01$01@3@@Eigen@@$0A@@Eigen@@@Eigen@@QEBANXZ
	??$maxCoeff@$0A@@?$DenseBase@V?$Matrix@N$00$01$00$00$01@Eigen@@@Eigen@@QEBANXZ
	??$maxCoeff@$0A@@?$DenseBase@V?$PartialReduxExpr@$$CBV?$CwiseUnaryOp@U?$scalar_abs_op@V?$complex@N@std@@@internal@Eigen@@$$CBV?$Matrix@V?$complex@N@std@@$0?0$0?0$0A@$0?0$0?0@3@@Eigen@@U?$member_sum@NN@internal@2@$0A@@Eigen@@@Eigen@@QEBANXZ
	??$maxCoeff@$0A@_J@?$DenseBase@V?$Block@V?$Matrix@N$00$01$00$00$01@Eigen@@$00$0?0$0A@@Eigen@@@Eigen@@QEBANPEA_J@Z
	??$maxCoeff@$0A@_J@?$DenseBase@V?$Block@V?$Matrix@N$01$00$0A@$01$00@Eigen@@$0?0$00$0A@@Eigen@@@Eigen@@QEBANPEA_J@Z
	??$maxCoeff@$0A@_J@?$DenseBase@V?$CwiseUnaryOp@U?$scalar_score_coeff_op@V?$complex@N@std@@@internal@Eigen@@$$CBV?$Block@V?$Block@V?$Ref@V?$Matrix@V?$complex@N@std@@$0?0$0?0$0A@$0?0$0?0@Eigen@@$0A@V?$OuterStride@$0?0@2@@Eigen@@$0?0$00$00@Eigen@@$0?0$00$0A@@3@@Eigen@@@Eigen@@QEBANPEA_J@Z
	??$maxCoeff@_J@?$DenseBase@V?$Block@V?$Matrix@N$01$00$0A@$01$00@Eigen@@$0?0$00$0A@@Eigen@@@Eigen@@QEBANPEA_J@Z
	??$outer_product_selector_run@V?$Block@V?$Block@V?$Matrix@N$0?0$0?0$0A@$0?0$0?0@Eigen@@$0?0$0?0$00@Eigen@@$0?0$0?0$0A@@Eigen@@V?$CwiseBinaryOp@U?$scalar_product_op@NN@internal@Eigen@@$$CBV?$CwiseNullaryOp@U?$scalar_constant_op@N@internal@Eigen@@$$CBV?$Matrix@N$0?0$00$0A@$0?0$00@3@@3@$$CBV?$Map@V?$Matrix@N$0?0$00$0A@$0?0$00@Eigen@@$0A@V?$Stride@$0A@$0A@@2@@3@@2@V?$Transpose@$$CBV?$Block@V?$Block@V?$Matrix@N$0?0$0?0$0A@$0?0$0?0@Eigen@@$0?0$00$00@Eigen@@$0?0$00$0A@@Eigen@@@2@Usub@?$generic_product_impl@V?$CwiseBinaryOp@U?$scalar_product_op@NN@internal@Eigen@@$$CBV?$CwiseNullaryOp@U?$scalar_constant_op@N@internal@Eigen@@$$CBV?$Matrix@N$0?0$00$0A@$0?0$00@3@@3@$$CBV?$Map@V?$Matrix@N$0?0$00$0A@$0?0$00@Eigen@@$0A@V?$Stride@$0A@$0A@@2@@3@@Eigen@@V?$Transpose@$$CBV?$Block@V?$Block@V?$Matrix@N$0?0$0?0$0A@$0?0$0?0@Eigen@@$0?0$00$00@Eigen@@$0?0$00$0A@@Eigen@@@2@UDenseShape@2@U42@$04@internal@2@@internal@Eigen@@YAXAEAV?$Block@V?$Block@V?$Matrix@N$0?0$0?0$0A@$0?0$0?0@Eigen@@$0?0$0?0$00@Eigen@@$0?0$0?0$0A@@1@AEBV?$CwiseBinaryOp@U?$scalar_product_op@NN@internal@Eigen@@$$CBV?$CwiseNullaryOp@U?$scalar_constant_op@N@internal@Eigen@@$$CBV?$Matrix@N$0?0$00$0A@$0?0$00@3@@3@$$CBV?$Map@V?$Matrix@N$0?0$00$0A@$0?0$00@Eigen@@$0A@V?$Stride@$0A@$0A@@2@@3@@1@AEBV?$Transpose@$$CBV?$Block@V?$Block@V?$Matrix@N$0?0$0?0$0A@$0?0$0?0@Eigen@@$0?0$00$00@Eigen@@$0?0$00$0A@@Eigen@@@1@AEBUsub@?$generic_product_impl@V?$CwiseBinaryOp@U?$scalar_product_op@NN@internal@Eigen@@$$CBV?$CwiseNullaryOp@U?$scalar_constant_op@N@internal@Eigen@@$$CBV?$Matrix@N$0?0$00$0A@$0?0$00@3@@3@$$CBV?$Map@V?$Matrix@N$0?0$00$0A@$0?0$00@Eigen@@$0A@V?$Stride@$0A@$0A@@2@@3@@Eigen@@V?$Transpose@$$CBV?$Block@V?$Block@V?$Matrix@N$0?0$0?0$0A@$0?0$0?0@Eigen@@$0?0$00$00@Eigen@@$0?0$00$0A@@Eigen@@@2@UDenseShape@2@U42@$04@01@AEBUfalse_type@01@@Z
	??$outer_product_selector_run@V?$Block@V?$Block@V?$Matrix@N$0?0$0?0$0A@$0?0$0?0@Eigen@@$0?0$0?0$0A@@Eigen@@$0?0$0?0$0A@@Eigen@@V?$CwiseBinaryOp@U?$scalar_product_op@NN@internal@Eigen@@$$CBV?$CwiseNullaryOp@U?$scalar_constant_op@N@internal@Eigen@@$$CBV?$Matrix@N$0?0$00$0A@$0?0$00@3@@3@$$CBV?$Block@$$CBV?$Matrix@N$0?0$0?0$0A@$0?0$0?0@Eigen@@$0?0$00$0A@@3@@2@V?$Map@V?$Matrix@N$00$0?0$00$00$0?0@Eigen@@$0A@V?$Stride@$0A@$0A@@2@@2@Usub@?$generic_product_impl@V?$CwiseBinaryOp@U?$scalar_product_op@NN@internal@Eigen@@$$CBV?$CwiseNullaryOp@U?$scalar_constant_op@N@internal@Eigen@@$$CBV?$Matrix@N$0?0$00$0A@$0?0$00@3@@3@$$CBV?$Block@$$CBV?$Matrix@N$0?0$0?0$0A@$0?0$0?0@Eigen@@$0?0$00$0A@@3@@Eigen@@V?$Map@V?$Matrix@N$00$0?0$00$00$0?0@Eigen@@$0A@V?$Stride@$0A@$0A@@2@@2@UDenseShape@2@U42@$04@internal@2@@internal@Eigen@@YAXAEAV?$Block@V?$Block@V?$Matrix@N$0?0$0?0$0A@$0?0$0?0@Eigen@@$0?0$0?0$0A@@Eigen@@$0?0$0?0$0A@@1@AEBV?$CwiseBinaryOp@U?$scalar_product_op@NN@internal@Eigen@@$$CBV?$CwiseNullaryOp@U?$scalar_constant_op@N@internal@Eigen@@$$CBV?$Matrix@N$0?0$00$0A@$0?0$00@3@@3@$$CBV?$Block@$$CBV?$Matrix@N$0?0$0?0$0A@$0?0$0?0@Eigen@@$0?0$00$0A@@3@@1@AEBV?$Map@V?$Matrix@N$00$0?0$00$00$0?0@Eigen@@$0A@V?$Stride@$0A@$0A@@2@@1@AEBUsub@?$generic_product_impl@V?$CwiseBinaryOp@U?$scalar_product_op@NN@internal@Eigen@@$$CBV?$CwiseNullaryOp@U?$scalar_constant_op@N@internal@Eigen@@$$CBV?$Matrix@N$0?0$00$0A@$0?0$00@3@@3@$$CBV?$Block@$$CBV?$Matrix@N$0?0$0?0$0A@$0?0$0?0@Eigen@@$0?0$00$0A@@3@@Eigen@@V?$Map@V?$Matrix@N$00$0?0$00$00$0?0@Eigen@@$0A@V?$Stride@$0A@$0A@@2@@2@UDenseShape@2@U42@$04@01@AEBUfalse_type@01@@Z
	??$outer_product_selector_run@V?$Block@V?$Block@V?$Matrix@N$0?0$0?0$0A@$0?0$0?0@Eigen@@$0?0$0?0$0A@@Eigen@@$0?0$0?0$0A@@Eigen@@V?$CwiseBinaryOp@U?$scalar_product_op@NN@internal@Eigen@@$$CBV?$CwiseNullaryOp@U?$scalar_constant_op@N@internal@Eigen@@$$CBV?$Matrix@N$0?0$00$0A@$0?0$00@3@@3@$$CBV?$Block@V?$Block@V?$Matrix@N$0?0$0?0$0A@$0?0$0?0@Eigen@@$0?0$00$00@Eigen@@$0?0$00$0A@@3@@2@V?$Map@V?$Matrix@N$00$0?0$00$00$0?0@Eigen@@$0A@V?$Stride@$0A@$0A@@2@@2@Usub@?$generic_product_impl@V?$CwiseBinaryOp@U?$scalar_product_op@NN@internal@Eigen@@$$CBV?$CwiseNullaryOp@U?$scalar_constant_op@N@internal@Eigen@@$$CBV?$Matrix@N$0?0$00$0A@$0?0$00@3@@3@$$CBV?$Block@V?$Block@V?$Matrix@N$0?0$0?0$0A@$0?0$0?0@Eigen@@$0?0$00$00@Eigen@@$0?0$00$0A@@3@@Eigen@@V?$Map@V?$Matrix@N$00$0?0$00$00$0?0@Eigen@@$0A@V?$Stride@$0A@$0A@@2@@2@UDenseShape@2@U42@$04@internal@2@@internal@Eigen@@YAXAEAV?$Block@V?$Block@V?$Matrix@N$0?0$0?0$0A@$0?0$0?0@Eigen@@$0?0$0?0$0A@@Eigen@@$0?0$0?0$0A@@1@AEBV?$CwiseBinaryOp@U?$scalar_product_op@NN@internal@Eigen@@$$CBV?$CwiseNullaryOp@U?$scalar_constant_op@N@internal@Eigen@@$$CBV?$Matrix@N$0?0$00$0A@$0?0$00@3@@3@$$CBV?$Block@V?$Block@V?$Matrix@N$0?0$0?0$0A@$0?0$0?0@Eigen@@$0?0$00$00@Eigen@@$0?0$00$0A@@3@@1@AEBV?$Map@V?$Matrix@N$00$0?0$00$00$0?0@Eigen@@$0A@V?$Stride@$0A@$0A@@2@@1@AEBUsub@?$generic_product_impl@V?$CwiseBinaryOp@U?$scalar_product_op@NN@internal@Eigen@@$$CBV?$CwiseNullaryOp@U?$scalar_constant_op@N@internal@Eigen@@$$CBV?$Matrix@N$0?0$00$0A@$0?0$00@3@@3@$$CBV?$Block@V?$Block@V?$Matrix@N$0?0$0?0$0A@$0?0$0?0@Eigen@@$0?0$00$00@Eigen@@$0?0$00$0A@@3@@Eigen@@V?$Map@V?$Matrix@N$00$0?0$00$00$0?0@Eigen@@$0A@V?$Stride@$0A@$0A@@2@@2@UDenseShape@2@U42@$04@01@AEBUfalse_type@01@@Z
	??$outer_product_selector_run@V?$Block@V?$Block@V?$Matrix@N$0?0$0?0$0A@$0?0$0?0@Eigen@@$0?0$0?0$0A@@Eigen@@$0?0$0?0$0A@@Eigen@@V?$CwiseBinaryOp@U?$scalar_product_op@NN@internal@Eigen@@$$CBV?$CwiseNullaryOp@U?$scalar_constant_op@N@internal@Eigen@@$$CBV?$Matrix@N$0?0$00$0A@$0?0$00@3@@3@$$CBV?$Map@V?$Matrix@N$0?0$00$0A@$0?0$00@Eigen@@$0A@V?$Stride@$0A@$0A@@2@@3@@2@V?$Transpose@$$CBV?$Block@$$CBV?$Matrix@N$0?0$0?0$0A@$0?0$0?0@Eigen@@$0?0$00$0A@@Eigen@@@2@Usub@?$generic_product_impl@V?$CwiseBinaryOp@U?$scalar_product_op@NN@internal@Eigen@@$$CBV?$CwiseNullaryOp@U?$scalar_constant_op@N@internal@Eigen@@$$CBV?$Matrix@N$0?0$00$0A@$0?0$00@3@@3@$$CBV?$Map@V?$Matrix@N$0?0$00$0A@$0?0$00@Eigen@@$0A@V?$Stride@$0A@$0A@@2@@3@@Eigen@@V?$Transpose@$$CBV?$Block@$$CBV?$Matrix@N$0?0$0?0$0A@$0?0$0?0@Eigen@@$0?0$00$0A@@Eigen@@@2@UDenseShape@2@U42@$04@internal@2@@internal@Eigen@@YAXAEAV?$Block@V?$Block@V?$Matrix@N$0?0$0?0$0A@$0?0$0?0@Eigen@@$0?0$0?0$0A@@Eigen@@$0?0$0?0$0A@@1@AEBV?$CwiseBinaryOp@U?$scalar_product_op@NN@internal@Eigen@@$$CBV?$CwiseNullaryOp@U?$scalar_constant_op@N@internal@Eigen@@$$CBV?$Matrix@N$0?0$00$0A@$0?0$00@3@@3@$$CBV?$Map@V?$Matrix@N$0?0$00$0A@$0?0$00@Eigen@@$0A@V?$Stride@$0A@$0A@@2@@3@@1@AEBV?$Transpose@$$CBV?$Block@$$CBV?$Matrix@N$0?0$0?0$0A@$0?0$0?0@Eigen@@$0?0$00$0A@@Eigen@@@1@AEBUsub@?$generic_product_impl@V?$CwiseBinaryOp@U?$scalar_product_op@NN@internal@Eigen@@$$CBV?$CwiseNullaryOp@U?$scalar_constant_op@N@internal@Eigen@@$$CBV?$Matrix@N$0?0$00$0A@$0?0$00@3@@3@$$CBV?$Map@V?$Matrix@N$0?0$00$0A@$0?0$00@Eigen@@$0A@V?$Stride@$0A@$0A@@2@@3@@Eigen@@V?$Transpose@$$CBV?$Block@$$CBV?$Matrix@N$0?0$0?0$0A@$0?0$0?0@Eigen@@$0?0$00$0A@@Eigen@@@2@UDenseShape@2@U42@$04@01@AEBUfalse_type@01@@Z
	??$outer_product_selector_run@V?$Block@V?$Ref@V?$Matrix@V?$complex@N@std@@$0?0$0?0$0A@$0?0$0?0@Eigen@@$0A@V?$OuterStride@$0?0@2@@Eigen@@$0?0$0?0$0A@@Eigen@@V?$Block@V?$Block@V?$Ref@V?$Matrix@V?$complex@N@std@@$0?0$0?0$0A@$0?0$0?0@Eigen@@$0A@V?$OuterStride@$0?0@2@@Eigen@@$0?0$00$00@Eigen@@$0?0$00$0A@@2@V?$Block@V?$Block@V?$Ref@V?$Matrix@V?$complex@N@std@@$0?0$0?0$0A@$0?0$0?0@Eigen@@$0A@V?$OuterStride@$0?0@2@@Eigen@@$00$0?0$0A@@Eigen@@$00$0?0$0A@@2@Usub@?$generic_product_impl@V?$Block@V?$Block@V?$Ref@V?$Matrix@V?$complex@N@std@@$0?0$0?0$0A@$0?0$0?0@Eigen@@$0A@V?$OuterStride@$0?0@2@@Eigen@@$0?0$00$00@Eigen@@$0?0$00$0A@@Eigen@@V?$Block@V?$Block@V?$Ref@V?$Matrix@V?$complex@N@std@@$0?0$0?0$0A@$0?0$0?0@Eigen@@$0A@V?$OuterStride@$0?0@2@@Eigen@@$00$0?0$0A@@Eigen@@$00$0?0$0A@@2@UDenseShape@2@U42@$04@internal@2@@internal@Eigen@@YAXAEAV?$Block@V?$Ref@V?$Matrix@V?$complex@N@std@@$0?0$0?0$0A@$0?0$0?0@Eigen@@$0A@V?$OuterStride@$0?0@2@@Eigen@@$0?0$0?0$0A@@1@AEBV?$Block@V?$Block@V?$Ref@V?$Matrix@V?$complex@N@std@@$0?0$0?0$0A@$0?0$0?0@Eigen@@$0A@V?$OuterStride@$0?0@2@@Eigen@@$0?0$00$00@Eigen@@$0?0$00$0A@@1@AEBV?$Block@V?$Block@V?$Ref@V?$Matrix@V?$complex@N@std@@$0?0$0?0$0A@$0?0$0?0@Eigen@@$0A@V?$OuterStride@$0?0@2@@Eigen@@$00$0?0$0A@@Eigen@@$00$0?0$0A@@1@AEBUsub@?$generic_product_impl@V?$Block@V?$Block@V?$Ref@V?$Matrix@V?$complex@N@std@@$0?0$0?0$0A@$0?0$0?0@Eigen@@$0A@V?$OuterStride@$0?0@2@@Eigen@@$0?0$00$00@Eigen@@$0?0$00$0A@@Eigen@@V?$Block@V?$Block@V?$Ref@V?$Matrix@V?$complex@N@std@@$0?0$0?0$0A@$0?0$0?0@Eigen@@$0A@V?$OuterStride@$0?0@2@@Eigen@@$00$0?0$0A@@Eigen@@$00$0?0$0A@@2@UDenseShape@2@U42@$04@01@AEBUfalse_type@01@@Z
	??$packetwise_redux_empty_value@U__m128d@@U?$scalar_sum_op@NN@internal@Eigen@@@internal@Eigen@@YA?AU__m128d@@AEBU?$scalar_sum_op@NN@01@@Z
	??$padd@U__m128d@@@internal@Eigen@@YA?AU?$DoublePacket@U__m128d@@@01@AEBU201@0@Z
	??$parallelize_gemm@$00U?$gemm_functor@V?$complex@N@std@@_JU?$general_matrix_matrix_product@_JV?$complex@N@std@@$0A@$0A@V12@$0A@$0A@$0A@$00@internal@Eigen@@V?$Matrix@V?$complex@N@std@@$0?0$0?0$0A@$0?0$0?0@5@V65@V65@V?$gemm_blocking_space@$0A@V?$complex@N@std@@V12@$0?0$0?0$0?0$00$0A@@45@@internal@Eigen@@_J@internal@Eigen@@YAXAEBU?$gemm_functor@V?$complex@N@std@@_JU?$general_matrix_matrix_product@_JV?$complex@N@std@@$0A@$0A@V12@$0A@$0A@$0A@$00@internal@Eigen@@V?$Matrix@V?$complex@N@std@@$0?0$0?0$0A@$0?0$0?0@5@V65@V65@V?$gemm_blocking_space@$0A@V?$complex@N@std@@V12@$0?0$0?0$0?0$00$0A@@45@@01@_J11_N@Z
	??$parallelize_gemm@$00U?$gemm_functor@V?$complex@N@std@@_JU?$general_matrix_matrix_product@_JV?$complex@N@std@@$0A@$0A@V12@$0A@$0A@$0A@$00@internal@Eigen@@V?$Ref@V?$Matrix@V?$complex@N@std@@$0?0$0?0$0A@$0?0$0?0@Eigen@@$0A@V?$OuterStride@$0?0@2@@5@V65@V65@V?$gemm_blocking_space@$0A@V?$complex@N@std@@V12@$0?0$0?0$0?0$00$0A@@45@@internal@Eigen@@_J@internal@Eigen@@YAXAEBU?$gemm_functor@V?$complex@N@std@@_JU?$general_matrix_matrix_product@_JV?$complex@N@std@@$0A@$0A@V12@$0A@$0A@$0A@$00@internal@Eigen@@V?$Ref@V?$Matrix@V?$complex@N@std@@$0?0$0?0$0A@$0?0$0?0@Eigen@@$0A@V?$OuterStride@$0?0@2@@5@V65@V65@V?$gemm_blocking_space@$0A@V?$complex@N@std@@V12@$0?0$0?0$0?0$00$0A@@45@@01@_J11_N@Z
	??$partial_lu_inplace@V?$Matrix@V?$complex@N@std@@$0?0$0?0$0A@$0?0$0?0@Eigen@@V?$Transpositions@$0?0$0?0H@2@@internal@Eigen@@YAXAEAV?$Matrix@V?$complex@N@std@@$0?0$0?0$0A@$0?0$0?0@1@AEAV?$Transpositions@$0?0$0?0H@1@AEAH@Z
	??$pmax@$00N@internal@Eigen@@YANAEBN0@Z
	??$pmax@$0A@N@internal@Eigen@@YANAEBN0@Z
	??$pmax@N@internal@Eigen@@YANAEBN0@Z
	??$pmax@U__m128d@@@internal@Eigen@@YA?AU__m128d@@AEBU2@0@Z
	??$predux_half_dowto4@U__m128d@@@internal@Eigen@@YAAEBU?$DoublePacket@U__m128d@@@01@AEBU201@PEAX@Z
	??$predux_max@$00U__m128d@@@internal@Eigen@@YANAEBU__m128d@@@Z
	??$real_2x2_jacobi_svd@V?$Matrix@N$01$01$0A@$01$01@Eigen@@N_J@internal@Eigen@@YAXAEBV?$Matrix@N$01$01$0A@$01$01@1@_J1PEAV?$JacobiRotation@N@1@2@Z
	??$redux@U?$scalar_max_op@NN$00@internal@Eigen@@@?$DenseBase@V?$CwiseUnaryOp@U?$scalar_abs_op@N@internal@Eigen@@$$CBV?$Matrix@N$01$02$0A@$01$02@3@@Eigen@@@Eigen@@QEBANAEBU?$scalar_max_op@NN$00@internal@1@@Z
	??$redux@U?$scalar_max_op@NN$0A@@internal@Eigen@@@?$DenseBase@V?$CwiseUnaryOp@U?$scalar_abs_op@N@internal@Eigen@@$$CBV?$Matrix@N$0?0$0?0$0A@$0?0$0?0@3@@Eigen@@@Eigen@@QEBANAEBU?$scalar_max_op@NN$0A@@internal@1@@Z
	??$redux@U?$scalar_max_op@NN$0A@@internal@Eigen@@@?$DenseBase@V?$Diagonal@$$CBV?$CwiseUnaryOp@U?$scalar_abs_op@N@internal@Eigen@@$$CBV?$Matrix@N$01$01$0A@$01$01@3@@Eigen@@$0A@@Eigen@@@Eigen@@QEBANAEBU?$scalar_max_op@NN$0A@@internal@1@@Z
	??$redux@U?$scalar_max_op@NN$0A@@internal@Eigen@@@?$DenseBase@V?$Matrix@N$00$01$00$00$01@Eigen@@@Eigen@@QEBANAEBU?$scalar_max_op@NN$0A@@internal@1@@Z
	??$redux@U?$scalar_max_op@NN$0A@@internal@Eigen@@@?$DenseBase@V?$PartialReduxExpr@$$CBV?$CwiseUnaryOp@U?$scalar_abs_op@V?$complex@N@std@@@internal@Eigen@@$$CBV?$Matrix@V?$complex@N@std@@$0?0$0?0$0A@$0?0$0?0@3@@Eigen@@U?$member_sum@NN@internal@2@$0A@@Eigen@@@Eigen@@QEBANAEBU?$scalar_max_op@NN$0A@@internal@1@@Z
	??$redux@U?$scalar_sum_op@HH@internal@Eigen@@@?$DenseBase@V?$Map@$$CBV?$Matrix@H$0?0$00$0A@$0?0$00@Eigen@@$0A@V?$Stride@$0A@$0A@@2@@Eigen@@@Eigen@@QEBAHAEBU?$scalar_sum_op@HH@internal@1@@Z
	??$redux@U?$scalar_sum_op@NN@internal@Eigen@@@?$DenseBase@V?$Block@$$CBV?$CwiseUnaryOp@U?$scalar_abs_op@V?$complex@N@std@@@internal@Eigen@@$$CBV?$Matrix@V?$complex@N@std@@$0?0$0?0$0A@$0?0$0?0@3@@Eigen@@$0?0$00$00@Eigen@@@Eigen@@QEBANAEBU?$scalar_sum_op@NN@internal@1@@Z
	??$redux@U?$scalar_sum_op@NN@internal@Eigen@@@?$DenseBase@V?$CwiseBinaryOp@U?$scalar_conj_product_op@NN@internal@Eigen@@$$CBV?$Matrix@N$02$00$0A@$02$00@3@$$CBV43@@Eigen@@@Eigen@@QEBANAEBU?$scalar_sum_op@NN@internal@1@@Z
	??$redux@U?$scalar_sum_op@NN@internal@Eigen@@@?$DenseBase@V?$CwiseBinaryOp@U?$scalar_conj_product_op@NN@internal@Eigen@@$$CBV?$Transpose@$$CBV?$Block@$$CBV?$Block@V?$Block@V?$Matrix@N$0?0$0?0$0A@$0?0$0?0@Eigen@@$0?0$0?0$00@Eigen@@$0?0$0?0$0A@@Eigen@@$00$0?0$0A@@Eigen@@@3@$$CBV?$Block@$$CBV?$Block@V?$Block@V?$Matrix@N$0?0$0?0$0A@$0?0$0?0@Eigen@@$0?0$00$00@Eigen@@$0?0$00$0A@@Eigen@@$0?0$00$00@3@@Eigen@@@Eigen@@QEBANAEBU?$scalar_sum_op@NN@internal@1@@Z
	??$redux@U?$scalar_sum_op@NN@internal@Eigen@@@?$DenseBase@V?$CwiseBinaryOp@U?$scalar_conj_product_op@NN@internal@Eigen@@$$CBV?$Transpose@$$CBV?$Block@$$CBV?$Block@V?$Block@V?$Matrix@N$0?0$0?0$0A@$0?0$0?0@Eigen@@$0?0$0?0$0A@@Eigen@@$0?0$0?0$0A@@Eigen@@$00$0?0$0A@@Eigen@@@3@$$CBV?$Block@$$CBV?$Block@$$CBV?$Matrix@N$0?0$0?0$0A@$0?0$0?0@Eigen@@$0?0$00$0A@@Eigen@@$0?0$00$00@3@@Eigen@@@Eigen@@QEBANAEBU?$scalar_sum_op@NN@internal@1@@Z
	??$redux@U?$scalar_sum_op@NN@internal@Eigen@@@?$DenseBase@V?$CwiseBinaryOp@U?$scalar_conj_product_op@NN@internal@Eigen@@$$CBV?$Transpose@$$CBV?$Block@$$CBV?$Block@V?$Matrix@N$0?0$0?0$0A@$0?0$0?0@Eigen@@$0?0$0?0$00@Eigen@@$00$0?0$0A@@Eigen@@@3@$$CBV?$Block@$$CBV?$Block@V?$Block@V?$Matrix@N$0?0$0?0$0A@$0?0$0?0@Eigen@@$0?0$00$00@Eigen@@$0?0$00$0A@@Eigen@@$0?0$00$00@3@@Eigen@@@Eigen@@QEBANAEBU?$scalar_sum_op@NN@internal@1@@Z
	??$redux@U?$scalar_sum_op@NN@internal@Eigen@@@?$DenseBase@V?$CwiseBinaryOp@U?$scalar_conj_product_op@NN@internal@Eigen@@$$CBV?$Transpose@$$CBV?$Block@$$CBV?$Transpose@$$CBV?$Block@$$CBV?$Matrix@N$0?0$0?0$0A@$0?0$0?0@Eigen@@$0?0$00$0A@@Eigen@@@Eigen@@$00$0?0$00@Eigen@@@3@$$CBV?$Block@$$CBV?$Block@V?$Block@V?$Matrix@N$0?0$0?0$0A@$0?0$0?0@Eigen@@$0?0$0?0$0A@@Eigen@@$0?0$0?0$0A@@Eigen@@$0?0$00$00@3@@Eigen@@@Eigen@@QEBANAEBU?$scalar_sum_op@NN@internal@1@@Z
	??$redux@U?$scalar_sum_op@NN@internal@Eigen@@@?$DenseBase@V?$CwiseBinaryOp@U?$scalar_conj_product_op@NN@internal@Eigen@@$$CBV?$Transpose@$$CBV?$Block@$$CBV?$Transpose@$$CBV?$Block@V?$Block@V?$Matrix@N$0?0$0?0$0A@$0?0$0?0@Eigen@@$0?0$00$00@Eigen@@$0?0$00$0A@@Eigen@@@Eigen@@$00$0?0$00@Eigen@@@3@$$CBV?$Block@$$CBV?$Block@V?$Block@V?$Matrix@N$0?0$0?0$0A@$0?0$0?0@Eigen@@$0?0$0?0$0A@@Eigen@@$0?0$0?0$0A@@Eigen@@$0?0$00$00@3@@Eigen@@@Eigen@@QEBANAEBU?$scalar_sum_op@NN@internal@1@@Z
	??$redux@U?$scalar_sum_op@NN@internal@Eigen@@@?$DenseBase@V?$CwiseBinaryOp@U?$scalar_conj_product_op@NN@internal@Eigen@@$$CBV?$Transpose@$$CBV?$Block@V?$Block@V?$Matrix@N$0?0$0?0$0A@$0?0$0?0@Eigen@@$00$0?0$0A@@Eigen@@$00$0?0$0A@@Eigen@@@3@$$CBV?$Block@V?$Block@V?$Matrix@N$0?0$0?0$0A@$0?0$0?0@Eigen@@$0?0$00$00@Eigen@@$0?0$00$0A@@3@@Eigen@@@Eigen@@QEBANAEBU?$scalar_sum_op@NN@internal@1@@Z
	??$redux@U?$scalar_sum_op@NN@internal@Eigen@@@?$DenseBase@V?$CwiseBinaryOp@U?$scalar_product_op@NN@internal@Eigen@@$$CBV?$Block@$$CBV?$Block@$$CBV?$Map@$$CBV?$Matrix@N$0?0$0?0$00$0?0$0?0@Eigen@@$0A@V?$OuterStride@$0?0@2@@Eigen@@$00$0?0$00@Eigen@@$00$0?0$0A@@3@$$CBV?$Transpose@$$CBV?$Block@$$CBV?$Map@$$CBV?$Matrix@N$0?0$00$0A@$0?0$00@Eigen@@$0A@V?$Stride@$0A@$0A@@2@@Eigen@@$0?0$00$0A@@Eigen@@@3@@Eigen@@@Eigen@@QEBANAEBU?$scalar_sum_op@NN@internal@1@@Z
	??$redux@U?$scalar_sum_op@NN@internal@Eigen@@@?$DenseBase@V?$CwiseBinaryOp@U?$scalar_product_op@NN@internal@Eigen@@$$CBV?$Transpose@$$CBV?$Block@$$CBV?$Block@V?$Block@V?$Matrix@N$02$02$0A@$02$02@Eigen@@$0?0$0?0$0A@@Eigen@@$0?0$0?0$0A@@Eigen@@$00$0?0$0A@@Eigen@@@3@$$CBV?$Block@$$CBV?$Block@$$CBV?$Matrix@N$02$01$0A@$02$01@Eigen@@$0?0$00$0A@@Eigen@@$0?0$00$00@3@@Eigen@@@Eigen@@QEBANAEBU?$scalar_sum_op@NN@internal@1@@Z
	??$redux@U?$scalar_sum_op@NN@internal@Eigen@@@?$DenseBase@V?$CwiseBinaryOp@U?$scalar_product_op@NN@internal@Eigen@@$$CBV?$Transpose@$$CBV?$Block@$$CBV?$Block@V?$Block@V?$Matrix@N$0?0$0?0$0A@$0?0$0?0@Eigen@@$0?0$0?0$0A@@Eigen@@$0?0$00$0A@@Eigen@@$00$00$0A@@Eigen@@@3@$$CBV?$Block@$$CBV?$Matrix@N$00$00$0A@$00$00@Eigen@@$00$00$00@3@@Eigen@@@Eigen@@QEBANAEBU?$scalar_sum_op@NN@internal@1@@Z
	??$redux@U?$scalar_sum_op@NN@internal@Eigen@@@?$DenseBase@V?$CwiseBinaryOp@U?$scalar_product_op@NN@internal@Eigen@@$$CBV?$Transpose@$$CBV?$Block@$$CBV?$Block@V?$Block@V?$Matrix@N$0?0$0?0$0A@$0?0$0?0@Eigen@@$0?0$0?0$0A@@Eigen@@$0?0$01$0A@@Eigen@@$00$01$0A@@Eigen@@@3@$$CBV?$Block@$$CBV?$Matrix@N$01$00$0A@$01$00@Eigen@@$01$00$00@3@@Eigen@@@Eigen@@QEBANAEBU?$scalar_sum_op@NN@internal@1@@Z
	??$redux@U?$scalar_sum_op@NN@internal@Eigen@@@?$DenseBase@V?$CwiseBinaryOp@U?$scalar_product_op@NN@internal@Eigen@@$$CBV?$Transpose@$$CBV?$Block@$$CBV?$CwiseBinaryOp@U?$scalar_product_op@NN@internal@Eigen@@$$CBV?$CwiseNullaryOp@U?$scalar_constant_op@N@internal@Eigen@@$$CBV?$Matrix@N$0?0$00$0A@$0?0$00@3@@3@$$CBV?$Map@V?$Matrix@N$0?0$00$0A@$0?0$00@Eigen@@$0A@V?$Stride@$0A@$0A@@2@@3@@Eigen@@$00$00$0A@@Eigen@@@3@$$CBV?$Block@$$CBV?$Transpose@$$CBV?$Matrix@N$00$00$0A@$00$00@Eigen@@@Eigen@@$00$00$0A@@3@@Eigen@@@Eigen@@QEBANAEBU?$scalar_sum_op@NN@internal@1@@Z
	??$redux@U?$scalar_sum_op@NN@internal@Eigen@@@?$DenseBase@V?$CwiseBinaryOp@U?$scalar_product_op@NN@internal@Eigen@@$$CBV?$Transpose@$$CBV?$Block@$$CBV?$CwiseBinaryOp@U?$scalar_product_op@NN@internal@Eigen@@$$CBV?$CwiseNullaryOp@U?$scalar_constant_op@N@internal@Eigen@@$$CBV?$Matrix@N$0?0$00$0A@$0?0$00@3@@3@$$CBV?$Map@V?$Matrix@N$0?0$00$0A@$0?0$00@Eigen@@$0A@V?$Stride@$0A@$0A@@2@@3@@Eigen@@$00$00$0A@@Eigen@@@3@$$CBV?$Block@$$CBV?$Transpose@$$CBV?$Matrix@N$01$00$0A@$01$00@Eigen@@@Eigen@@$00$00$0A@@3@@Eigen@@@Eigen@@QEBANAEBU?$scalar_sum_op@NN@internal@1@@Z
	??$redux@U?$scalar_sum_op@NN@internal@Eigen@@@?$DenseBase@V?$CwiseBinaryOp@U?$scalar_product_op@NN@internal@Eigen@@$$CBV?$Transpose@$$CBV?$Block@$$CBV?$Matrix@N$00$00$0A@$00$00@Eigen@@$00$00$0A@@Eigen@@@3@$$CBV?$Block@$$CBV?$Map@V?$Matrix@N$00$0?0$00$00$0?0@Eigen@@$0A@V?$Stride@$0A@$0A@@2@@Eigen@@$00$00$0A@@3@@Eigen@@@Eigen@@QEBANAEBU?$scalar_sum_op@NN@internal@1@@Z
	??$redux@U?$scalar_sum_op@NN@internal@Eigen@@@?$DenseBase@V?$CwiseBinaryOp@U?$scalar_product_op@NN@internal@Eigen@@$$CBV?$Transpose@$$CBV?$Block@$$CBV?$Matrix@N$0?0$00$0A@$02$00@Eigen@@$00$00$0A@@Eigen@@@3@$$CBV?$Block@$$CBV?$Map@V?$Matrix@N$00$0?0$00$00$01@Eigen@@$0A@V?$Stride@$0A@$0A@@2@@Eigen@@$00$00$0A@@3@@Eigen@@@Eigen@@QEBANAEBU?$scalar_sum_op@NN@internal@1@@Z
	??$redux@U?$scalar_sum_op@NN@internal@Eigen@@@?$DenseBase@V?$CwiseBinaryOp@U?$scalar_product_op@NN@internal@Eigen@@$$CBV?$Transpose@$$CBV?$Block@$$CBV?$Matrix@N$0?0$00$0A@$02$00@Eigen@@$00$00$0A@@Eigen@@@3@$$CBV?$Block@$$CBV?$Map@V?$Matrix@N$00$0?0$00$00$02@Eigen@@$0A@V?$Stride@$0A@$0A@@2@@Eigen@@$00$00$0A@@3@@Eigen@@@Eigen@@QEBANAEBU?$scalar_sum_op@NN@internal@1@@Z
	??$redux@U?$scalar_sum_op@NN@internal@Eigen@@@?$DenseBase@V?$CwiseBinaryOp@U?$scalar_product_op@NN@internal@Eigen@@$$CBV?$Transpose@$$CBV?$Block@$$CBV?$Matrix@N$0?0$00$0A@$02$00@Eigen@@$00$00$0A@@Eigen@@@3@$$CBV?$Block@$$CBV?$Transpose@$$CBV?$Block@$$CBV?$Matrix@N$02$01$0A@$02$01@Eigen@@$0?0$00$0A@@Eigen@@@Eigen@@$00$00$0A@@3@@Eigen@@@Eigen@@QEBANAEBU?$scalar_sum_op@NN@internal@1@@Z
	??$redux@U?$scalar_sum_op@NN@internal@Eigen@@@?$DenseBase@V?$CwiseBinaryOp@U?$scalar_product_op@NN@internal@Eigen@@$$CBV?$Transpose@$$CBV?$Block@$$CBV?$Transpose@$$CBV?$Block@$$CBV?$Matrix@N$02$01$0A@$02$01@Eigen@@$0?0$00$0A@@Eigen@@@Eigen@@$00$0?0$00@Eigen@@@3@$$CBV?$Block@$$CBV?$Block@V?$Block@V?$Matrix@N$02$02$0A@$02$02@Eigen@@$0?0$0?0$0A@@Eigen@@$0?0$0?0$0A@@Eigen@@$0?0$00$00@3@@Eigen@@@Eigen@@QEBANAEBU?$scalar_sum_op@NN@internal@1@@Z
	??$redux@U?$scalar_sum_op@NN@internal@Eigen@@@?$DenseBase@V?$CwiseBinaryOp@U?$scalar_product_op@NN@internal@Eigen@@$$CBV?$Transpose@$$CBV?$Block@$$CBV?$Transpose@$$CBV?$Block@V?$Block@V?$Matrix@N$02$01$0A@$02$01@Eigen@@$02$00$00@Eigen@@$0?0$00$0A@@Eigen@@@Eigen@@$00$0?0$00@Eigen@@@3@$$CBV?$Block@$$CBV?$Block@V?$Block@V?$Matrix@N$02$01$0A@$02$01@Eigen@@$0?0$0?0$0A@@Eigen@@$0?0$0?0$0A@@Eigen@@$0?0$00$00@3@@Eigen@@@Eigen@@QEBANAEBU?$scalar_sum_op@NN@internal@1@@Z
	??$redux@U?$scalar_sum_op@NN@internal@Eigen@@@?$DenseBase@V?$CwiseBinaryOp@U?$scalar_product_op@NN@internal@Eigen@@$$CBV?$Transpose@$$CBV?$Block@$$CBV?$Transpose@$$CBV?$Matrix@N$00$00$0A@$00$00@Eigen@@@Eigen@@$00$00$00@Eigen@@@3@$$CBV?$Block@$$CBV?$Block@V?$Block@V?$Matrix@N$0?0$0?0$0A@$0?0$0?0@Eigen@@$0?0$0?0$0A@@Eigen@@$00$0?0$0A@@Eigen@@$00$00$0A@@3@@Eigen@@@Eigen@@QEBANAEBU?$scalar_sum_op@NN@internal@1@@Z
	??$redux@U?$scalar_sum_op@NN@internal@Eigen@@@?$DenseBase@V?$CwiseBinaryOp@U?$scalar_product_op@NN@internal@Eigen@@$$CBV?$Transpose@$$CBV?$Block@$$CBV?$Transpose@$$CBV?$Matrix@N$01$00$0A@$01$00@Eigen@@@Eigen@@$00$01$00@Eigen@@@3@$$CBV?$Block@$$CBV?$Block@V?$Block@V?$Matrix@N$0?0$0?0$0A@$0?0$0?0@Eigen@@$0?0$0?0$0A@@Eigen@@$01$0?0$0A@@Eigen@@$01$00$00@3@@Eigen@@@Eigen@@QEBANAEBU?$scalar_sum_op@NN@internal@1@@Z
	??$redux@U?$scalar_sum_op@NN@internal@Eigen@@@?$DenseBase@V?$CwiseUnaryOp@U?$scalar_abs2_op@N@internal@Eigen@@$$CBV?$Block@$$CBV?$Block@V?$Block@V?$Matrix@N$02$01$0A@$02$01@Eigen@@$02$00$00@Eigen@@$0?0$00$0A@@Eigen@@$0?0$00$0A@@3@@Eigen@@@Eigen@@QEBANAEBU?$scalar_sum_op@NN@internal@1@@Z
	??$redux@U?$scalar_sum_op@NN@internal@Eigen@@@?$DenseBase@V?$CwiseUnaryOp@U?$scalar_abs2_op@N@internal@Eigen@@$$CBV?$Block@$$CBV?$Block@V?$Block@V?$Matrix@N$0?0$0?0$0A@$0?0$0?0@Eigen@@$0?0$00$00@Eigen@@$0?0$00$0A@@Eigen@@$0?0$00$0A@@3@@Eigen@@@Eigen@@QEBANAEBU?$scalar_sum_op@NN@internal@1@@Z
	??$redux@U?$scalar_sum_op@NN@internal@Eigen@@@?$DenseBase@V?$CwiseUnaryOp@U?$scalar_abs2_op@N@internal@Eigen@@$$CBV?$Block@$$CBV?$Matrix@N$01$00$0A@$01$00@Eigen@@$00$00$0A@@3@@Eigen@@@Eigen@@QEBANAEBU?$scalar_sum_op@NN@internal@1@@Z
	??$redux@U?$scalar_sum_op@NN@internal@Eigen@@@?$DenseBase@V?$CwiseUnaryOp@U?$scalar_abs2_op@N@internal@Eigen@@$$CBV?$Block@$$CBV?$Matrix@N$02$00$0A@$02$00@Eigen@@$01$00$0A@@3@@Eigen@@@Eigen@@QEBANAEBU?$scalar_sum_op@NN@internal@1@@Z
	??$redux@U?$scalar_sum_op@NN@internal@Eigen@@@?$DenseBase@V?$CwiseUnaryOp@U?$scalar_abs2_op@N@internal@Eigen@@$$CBV?$Block@V?$Block@V?$Matrix@N$02$01$0A@$02$01@Eigen@@$02$00$00@Eigen@@$0?0$00$0A@@3@@Eigen@@@Eigen@@QEBANAEBU?$scalar_sum_op@NN@internal@1@@Z
	??$redux@U?$scalar_sum_op@NN@internal@Eigen@@@?$DenseBase@V?$CwiseUnaryOp@U?$scalar_abs2_op@N@internal@Eigen@@$$CBV?$Block@V?$Matrix@N$02$01$0A@$02$01@Eigen@@$02$00$00@3@@Eigen@@@Eigen@@QEBANAEBU?$scalar_sum_op@NN@internal@1@@Z
	??$redux@U?$scalar_sum_op@NN@internal@Eigen@@@?$DenseBase@V?$CwiseUnaryOp@U?$scalar_abs2_op@N@internal@Eigen@@$$CBV?$CwiseBinaryOp@U?$scalar_difference_op@NN@internal@Eigen@@$$CBV?$Matrix@N$02$00$0A@$02$00@3@$$CBV43@@3@@Eigen@@@Eigen@@QEBANAEBU?$scalar_sum_op@NN@internal@1@@Z
	??$redux@U?$scalar_sum_op@NN@internal@Eigen@@@?$DenseBase@V?$CwiseUnaryOp@U?$scalar_abs2_op@N@internal@Eigen@@$$CBV?$Matrix@N$02$00$0A@$02$00@3@@Eigen@@@Eigen@@QEBANAEBU?$scalar_sum_op@NN@internal@1@@Z
	??$redux@U?$scalar_sum_op@NN@internal@Eigen@@@?$DenseBase@V?$CwiseUnaryOp@U?$scalar_abs2_op@V?$complex@N@std@@@internal@Eigen@@$$CBV?$Block@V?$Matrix@V?$complex@N@std@@$0?0$0?0$0A@$0?0$0?0@Eigen@@$0?0$00$00@3@@Eigen@@@Eigen@@QEBANAEBU?$scalar_sum_op@NN@internal@1@@Z
	??$redux@U?$scalar_sum_op@NN@internal@Eigen@@@?$DenseBase@V?$CwiseUnaryOp@U?$scalar_abs2_op@V?$complex@N@std@@@internal@Eigen@@$$CBV?$Matrix@V?$complex@N@std@@$0?0$0?0$0A@$0?0$0?0@3@@Eigen@@@Eigen@@QEBANAEBU?$scalar_sum_op@NN@internal@1@@Z
	??$redux@U?$scalar_sum_op@NN@internal@Eigen@@@?$DenseBase@V?$CwiseUnaryOp@U?$scalar_abs_op@N@internal@Eigen@@$$CBV?$Block@V?$Block@V?$Matrix@N$0?0$0?0$0A@$0?0$0?0@Eigen@@$00$0?0$0A@@Eigen@@$00$0?0$0A@@3@@Eigen@@@Eigen@@QEBANAEBU?$scalar_sum_op@NN@internal@1@@Z
	??$redux@U?$scalar_sum_op@NN@internal@Eigen@@@?$DenseBase@V?$CwiseUnaryOp@U?$scalar_abs_op@N@internal@Eigen@@$$CBV?$Block@V?$Block@V?$Matrix@N$0?0$0?0$0A@$0?0$0?0@Eigen@@$0?0$00$00@Eigen@@$0?0$00$0A@@3@@Eigen@@@Eigen@@QEBANAEBU?$scalar_sum_op@NN@internal@1@@Z
	??$redux@U?$scalar_sum_op@NN@internal@Eigen@@@?$DenseBase@V?$Matrix@N$0?0$00$0A@$0?0$00@Eigen@@@Eigen@@QEBANAEBU?$scalar_sum_op@NN@internal@1@@Z
	??$redux@U?$scalar_sum_op@V?$complex@N@std@@V12@@internal@Eigen@@@?$DenseBase@V?$CwiseBinaryOp@U?$scalar_conj_product_op@V?$complex@N@std@@N@internal@Eigen@@$$CBV?$Transpose@$$CBV?$CwiseUnaryOp@U?$scalar_conjugate_op@V?$complex@N@std@@@internal@Eigen@@$$CBV?$Block@$$CBV?$Matrix@V?$complex@N@std@@$0?0$0?0$0A@$0?0$0?0@Eigen@@$00$0?0$0A@@3@@Eigen@@@3@$$CBV?$Block@$$CBV?$Matrix@N$0?0$00$0A@$0?0$00@Eigen@@$0?0$00$00@3@@Eigen@@@Eigen@@QEBA?AV?$complex@N@std@@AEBU?$scalar_sum_op@V?$complex@N@std@@V12@@internal@1@@Z
	??$redux@U?$scalar_sum_op@V?$complex@N@std@@V12@@internal@Eigen@@@?$DenseBase@V?$CwiseBinaryOp@U?$scalar_conj_product_op@V?$complex@N@std@@V12@@internal@Eigen@@$$CBV?$Transpose@$$CBV?$CwiseUnaryOp@U?$scalar_conjugate_op@V?$complex@N@std@@@internal@Eigen@@$$CBV?$Block@$$CBV?$Block@$$CBV?$Product@V?$Matrix@V?$complex@N@std@@$0?0$0?0$0A@$0?0$0?0@Eigen@@V?$DiagonalWrapper@$$CBV?$Matrix@V?$complex@N@std@@$0?0$00$0A@$0?0$00@Eigen@@@2@$00@Eigen@@$00$0?0$0A@@Eigen@@$00$0?0$00@3@@Eigen@@@3@$$CBV?$Block@$$CBV?$Matrix@V?$complex@N@std@@$0?0$0?0$0A@$0?0$0?0@Eigen@@$0?0$00$00@3@@Eigen@@@Eigen@@QEBA?AV?$complex@N@std@@AEBU?$scalar_sum_op@V?$complex@N@std@@V12@@internal@1@@Z
	??$redux@U?$scalar_sum_op@V?$complex@N@std@@V12@@internal@Eigen@@@?$DenseBase@V?$CwiseBinaryOp@U?$scalar_conj_product_op@V?$complex@N@std@@V12@@internal@Eigen@@$$CBV?$Transpose@$$CBV?$CwiseUnaryOp@U?$scalar_conjugate_op@V?$complex@N@std@@@internal@Eigen@@$$CBV?$Block@$$CBV?$Block@$$CBV?$Ref@V?$Matrix@V?$complex@N@std@@$0?0$0?0$0A@$0?0$0?0@Eigen@@$0A@V?$OuterStride@$0?0@2@@Eigen@@$00$0?0$0A@@Eigen@@$00$0?0$00@3@@Eigen@@@3@$$CBV?$Block@$$CBV?$Ref@V?$Matrix@V?$complex@N@std@@$0?0$0?0$0A@$0?0$0?0@Eigen@@$0A@V?$OuterStride@$0?0@2@@Eigen@@$0?0$00$00@3@@Eigen@@@Eigen@@QEBA?AV?$complex@N@std@@AEBU?$scalar_sum_op@V?$complex@N@std@@V12@@internal@1@@Z
	??$redux@U?$scalar_sum_op@V?$complex@N@std@@V12@@internal@Eigen@@@?$DenseBase@V?$CwiseBinaryOp@U?$scalar_conj_product_op@V?$complex@N@std@@V12@@internal@Eigen@@$$CBV?$Transpose@$$CBV?$CwiseUnaryOp@U?$scalar_conjugate_op@V?$complex@N@std@@@internal@Eigen@@$$CBV?$Block@$$CBV?$Matrix@V?$complex@N@std@@$0?0$0?0$0A@$0?0$0?0@Eigen@@$00$0?0$0A@@3@@Eigen@@@3@$$CBV?$Block@$$CBV?$Matrix@V?$complex@N@std@@$0?0$00$0A@$0?0$00@Eigen@@$0?0$00$00@3@@Eigen@@@Eigen@@QEBA?AV?$complex@N@std@@AEBU?$scalar_sum_op@V?$complex@N@std@@V12@@internal@1@@Z
	??$redux@U?$scalar_sum_op@V?$complex@N@std@@V12@@internal@Eigen@@@?$DenseBase@V?$CwiseBinaryOp@U?$scalar_conj_product_op@V?$complex@N@std@@V12@@internal@Eigen@@$$CBV?$Transpose@$$CBV?$CwiseUnaryOp@U?$scalar_conjugate_op@V?$complex@N@std@@@internal@Eigen@@$$CBV?$Block@$$CBV?$Product@V?$Matrix@V?$complex@N@std@@$0?0$0?0$0A@$0?0$0?0@Eigen@@V?$DiagonalWrapper@$$CBV?$Matrix@V?$complex@N@std@@$0?0$00$0A@$0?0$00@Eigen@@@2@$00@Eigen@@$00$0?0$0A@@3@@Eigen@@@3@$$CBV?$Block@$$CBV?$Block@$$CBV?$Matrix@V?$complex@N@std@@$0?0$0?0$0A@$0?0$0?0@Eigen@@$0?0$00$00@Eigen@@$0?0$00$00@3@@Eigen@@@Eigen@@QEBA?AV?$complex@N@std@@AEBU?$scalar_sum_op@V?$complex@N@std@@V12@@internal@1@@Z
	??$redux@U?$scalar_sum_op@V?$complex@N@std@@V12@@internal@Eigen@@@?$DenseBase@V?$CwiseBinaryOp@U?$scalar_conj_product_op@V?$complex@N@std@@V12@@internal@Eigen@@$$CBV?$Transpose@$$CBV?$CwiseUnaryOp@U?$scalar_conjugate_op@V?$complex@N@std@@@internal@Eigen@@$$CBV?$Block@$$CBV?$Ref@V?$Matrix@V?$complex@N@std@@$0?0$0?0$0A@$0?0$0?0@Eigen@@$0A@V?$OuterStride@$0?0@2@@Eigen@@$00$0?0$0A@@3@@Eigen@@@3@$$CBV?$Block@$$CBV?$Block@$$CBV?$Ref@V?$Matrix@V?$complex@N@std@@$0?0$0?0$0A@$0?0$0?0@Eigen@@$0A@V?$OuterStride@$0?0@2@@Eigen@@$0?0$00$00@Eigen@@$0?0$00$00@3@@Eigen@@@Eigen@@QEBA?AV?$complex@N@std@@AEBU?$scalar_sum_op@V?$complex@N@std@@V12@@internal@1@@Z
	??$redux@U?$scalar_sum_op@V?$complex@N@std@@V12@@internal@Eigen@@@?$DenseBase@V?$CwiseBinaryOp@U?$scalar_product_op@V?$complex@N@std@@V12@@internal@Eigen@@$$CBV?$Transpose@$$CBV?$Block@$$CBV?$Matrix@V?$complex@N@std@@$0?0$0?0$0A@$0?0$0?0@Eigen@@$00$0?0$0A@@Eigen@@@3@$$CBV?$Block@$$CBV?$Matrix@V?$complex@N@std@@$0?0$0?0$0A@$0?0$0?0@Eigen@@$0?0$00$00@3@@Eigen@@@Eigen@@QEBA?AV?$complex@N@std@@AEBU?$scalar_sum_op@V?$complex@N@std@@V12@@internal@1@@Z
	??$redux@U?$scalar_sum_op@V?$complex@N@std@@V12@@internal@Eigen@@@?$DenseBase@V?$CwiseBinaryOp@U?$scalar_product_op@V?$complex@N@std@@V12@@internal@Eigen@@$$CBV?$Transpose@$$CBV?$Block@$$CBV?$Ref@V?$Matrix@V?$complex@N@std@@$0?0$0?0$0A@$0?0$0?0@Eigen@@$0A@V?$OuterStride@$0?0@2@@Eigen@@$00$0?0$0A@@Eigen@@@3@$$CBV?$Block@$$CBV?$Ref@V?$Matrix@V?$complex@N@std@@$0?0$0?0$0A@$0?0$0?0@Eigen@@$0A@V?$OuterStride@$0?0@2@@Eigen@@$0?0$00$00@3@@Eigen@@@Eigen@@QEBA?AV?$complex@N@std@@AEBU?$scalar_sum_op@V?$complex@N@std@@V12@@internal@1@@Z
	??$run@V?$Block@$$CBV?$Product@V?$Matrix@V?$complex@N@std@@$0?0$0?0$0A@$0?0$0?0@Eigen@@V?$DiagonalWrapper@$$CBV?$Matrix@V?$complex@N@std@@$0?0$00$0A@$0?0$00@Eigen@@@2@$00@Eigen@@$00$0?0$0A@@Eigen@@V?$Matrix@V?$complex@N@std@@$0?0$0?0$0A@$0?0$0?0@2@V?$Block@V?$Matrix@V?$complex@N@std@@$0?0$0?0$0A@$0?0$0?0@Eigen@@$00$0?0$0A@@2@@?$gemv_dense_selector@$00$0A@$00@internal@Eigen@@SAXAEBV?$Block@$$CBV?$Product@V?$Matrix@V?$complex@N@std@@$0?0$0?0$0A@$0?0$0?0@Eigen@@V?$DiagonalWrapper@$$CBV?$Matrix@V?$complex@N@std@@$0?0$00$0A@$0?0$00@Eigen@@@2@$00@Eigen@@$00$0?0$0A@@2@AEBV?$Matrix@V?$complex@N@std@@$0?0$0?0$0A@$0?0$0?0@2@AEAV?$Block@V?$Matrix@V?$complex@N@std@@$0?0$0?0$0A@$0?0$0?0@Eigen@@$00$0?0$0A@@2@AEBV?$complex@N@std@@@Z
	??$run@V?$Block@$$CBV?$Ref@V?$Matrix@V?$complex@N@std@@$0?0$0?0$0A@$0?0$0?0@Eigen@@$0A@V?$OuterStride@$0?0@2@@Eigen@@$00$0?0$0A@@Eigen@@V?$Ref@V?$Matrix@V?$complex@N@std@@$0?0$0?0$0A@$0?0$0?0@Eigen@@$0A@V?$OuterStride@$0?0@2@@2@V?$Block@V?$Ref@V?$Matrix@V?$complex@N@std@@$0?0$0?0$0A@$0?0$0?0@Eigen@@$0A@V?$OuterStride@$0?0@2@@Eigen@@$00$0?0$0A@@2@@?$gemv_dense_selector@$00$0A@$00@internal@Eigen@@SAXAEBV?$Block@$$CBV?$Ref@V?$Matrix@V?$complex@N@std@@$0?0$0?0$0A@$0?0$0?0@Eigen@@$0A@V?$OuterStride@$0?0@2@@Eigen@@$00$0?0$0A@@2@AEBV?$Ref@V?$Matrix@V?$complex@N@std@@$0?0$0?0$0A@$0?0$0?0@Eigen@@$0A@V?$OuterStride@$0?0@2@@2@AEAV?$Block@V?$Ref@V?$Matrix@V?$complex@N@std@@$0?0$0?0$0A@$0?0$0?0@Eigen@@$0A@V?$OuterStride@$0?0@2@@Eigen@@$00$0?0$0A@@2@AEBV?$complex@N@std@@@Z
	??$run@V?$Block@V?$Matrix@N$02$02$0A@$02$02@Eigen@@$0?0$0?0$0A@@Eigen@@@?$triangular_product_impl@$04$00$$CBV?$Block@V?$Matrix@N$02$01$0A@$02$01@Eigen@@$0?0$0?0$0A@@Eigen@@$0A@V?$Matrix@N$0?0$0?0$0A@$01$02@2@$0A@@internal@Eigen@@SAXAEAV?$Block@V?$Matrix@N$02$02$0A@$02$02@Eigen@@$0?0$0?0$0A@@2@AEBV?$Block@V?$Matrix@N$02$01$0A@$02$01@Eigen@@$0?0$0?0$0A@@2@AEBV?$Matrix@N$0?0$0?0$0A@$01$02@2@AEBN@Z
	??$run@V?$Block@V?$Matrix@N$0?0$0?0$0A@$0?0$0?0@Eigen@@$0?0$0?0$00@Eigen@@V?$Block@V?$Block@V?$Matrix@N$0?0$0?0$0A@$0?0$0?0@Eigen@@$0?0$00$00@Eigen@@$0?0$00$0A@@2@V?$Matrix@N$0?0$00$0A@$0?0$00@2@@?$gemv_dense_selector@$01$0A@$00@internal@Eigen@@SAXAEBV?$Block@V?$Matrix@N$0?0$0?0$0A@$0?0$0?0@Eigen@@$0?0$0?0$00@2@AEBV?$Block@V?$Block@V?$Matrix@N$0?0$0?0$0A@$0?0$0?0@Eigen@@$0?0$00$00@Eigen@@$0?0$00$0A@@2@AEAV?$Matrix@N$0?0$00$0A@$0?0$00@2@AEBN@Z
	??$run@V?$Block@V?$Matrix@N$0?0$0?0$0A@$0?0$0?0@Eigen@@$0?0$0?0$0A@@Eigen@@@?$triangular_product_impl@$04$00$$CBV?$Block@V?$Matrix@N$0?0$0?0$0A@$0?0$0?0@Eigen@@$0?0$0?0$0A@@Eigen@@$0A@V?$Matrix@N$0?0$0?0$0A@$0?0$0?0@2@$0A@@internal@Eigen@@SAXAEAV?$Block@V?$Matrix@N$0?0$0?0$0A@$0?0$0?0@Eigen@@$0?0$0?0$0A@@2@AEBV32@AEBV?$Matrix@N$0?0$0?0$0A@$0?0$0?0@2@AEBN@Z
	??$run@V?$CwiseBinaryOp@U?$scalar_conj_product_op@NN@internal@Eigen@@$$CBV?$Transpose@$$CBV?$Block@$$CBV?$Transpose@$$CBV?$Block@$$CBV?$Matrix@N$0?0$0?0$0A@$0?0$0?0@Eigen@@$0?0$00$0A@@Eigen@@@Eigen@@$00$0?0$00@Eigen@@@3@$$CBV?$Block@$$CBV?$Block@V?$Block@V?$Matrix@N$0?0$0?0$0A@$0?0$0?0@Eigen@@$0?0$0?0$0A@@Eigen@@$0?0$0?0$0A@@Eigen@@$0?0$00$00@3@@Eigen@@@?$redux_impl@U?$scalar_sum_op@NN@internal@Eigen@@V?$redux_evaluator@V?$CwiseBinaryOp@U?$scalar_conj_product_op@NN@internal@Eigen@@$$CBV?$Transpose@$$CBV?$Block@$$CBV?$Transpose@$$CBV?$Block@$$CBV?$Matrix@N$0?0$0?0$0A@$0?0$0?0@Eigen@@$0?0$00$0A@@Eigen@@@Eigen@@$00$0?0$00@Eigen@@@3@$$CBV?$Block@$$CBV?$Block@V?$Block@V?$Matrix@N$0?0$0?0$0A@$0?0$0?0@Eigen@@$0?0$0?0$0A@@Eigen@@$0?0$0?0$0A@@Eigen@@$0?0$00$00@3@@Eigen@@@23@$02$0A@@internal@Eigen@@SANAEBV?$redux_evaluator@V?$CwiseBinaryOp@U?$scalar_conj_product_op@NN@internal@Eigen@@$$CBV?$Transpose@$$CBV?$Block@$$CBV?$Transpose@$$CBV?$Block@$$CBV?$Matrix@N$0?0$0?0$0A@$0?0$0?0@Eigen@@$0?0$00$0A@@Eigen@@@Eigen@@$00$0?0$00@Eigen@@@3@$$CBV?$Block@$$CBV?$Block@V?$Block@V?$Matrix@N$0?0$0?0$0A@$0?0$0?0@Eigen@@$0?0$0?0$0A@@Eigen@@$0?0$0?0$0A@@Eigen@@$0?0$00$00@3@@Eigen@@@12@AEBU?$scalar_sum_op@NN@12@AEBV?$CwiseBinaryOp@U?$scalar_conj_product_op@NN@internal@Eigen@@$$CBV?$Transpose@$$CBV?$Block@$$CBV?$Transpose@$$CBV?$Block@$$CBV?$Matrix@N$0?0$0?0$0A@$0?0$0?0@Eigen@@$0?0$00$0A@@Eigen@@@Eigen@@$00$0?0$00@Eigen@@@3@$$CBV?$Block@$$CBV?$Block@V?$Block@V?$Matrix@N$0?0$0?0$0A@$0?0$0?0@Eigen@@$0?0$0?0$0A@@Eigen@@$0?0$0?0$0A@@Eigen@@$0?0$00$00@3@@2@@Z
	??$run@V?$CwiseBinaryOp@U?$scalar_conj_product_op@NN@internal@Eigen@@$$CBV?$Transpose@$$CBV?$Block@$$CBV?$Transpose@$$CBV?$Block@V?$Block@V?$Matrix@N$0?0$0?0$0A@$0?0$0?0@Eigen@@$0?0$00$00@Eigen@@$0?0$00$0A@@Eigen@@@Eigen@@$00$0?0$00@Eigen@@@3@$$CBV?$Block@$$CBV?$Block@V?$Block@V?$Matrix@N$0?0$0?0$0A@$0?0$0?0@Eigen@@$0?0$0?0$0A@@Eigen@@$0?0$0?0$0A@@Eigen@@$0?0$00$00@3@@Eigen@@@?$redux_impl@U?$scalar_sum_op@NN@internal@Eigen@@V?$redux_evaluator@V?$CwiseBinaryOp@U?$scalar_conj_product_op@NN@internal@Eigen@@$$CBV?$Transpose@$$CBV?$Block@$$CBV?$Transpose@$$CBV?$Block@V?$Block@V?$Matrix@N$0?0$0?0$0A@$0?0$0?0@Eigen@@$0?0$00$00@Eigen@@$0?0$00$0A@@Eigen@@@Eigen@@$00$0?0$00@Eigen@@@3@$$CBV?$Block@$$CBV?$Block@V?$Block@V?$Matrix@N$0?0$0?0$0A@$0?0$0?0@Eigen@@$0?0$0?0$0A@@Eigen@@$0?0$0?0$0A@@Eigen@@$0?0$00$00@3@@Eigen@@@23@$02$0A@@internal@Eigen@@SANAEBV?$redux_evaluator@V?$CwiseBinaryOp@U?$scalar_conj_product_op@NN@internal@Eigen@@$$CBV?$Transpose@$$CBV?$Block@$$CBV?$Transpose@$$CBV?$Block@V?$Block@V?$Matrix@N$0?0$0?0$0A@$0?0$0?0@Eigen@@$0?0$00$00@Eigen@@$0?0$00$0A@@Eigen@@@Eigen@@$00$0?0$00@Eigen@@@3@$$CBV?$Block@$$CBV?$Block@V?$Block@V?$Matrix@N$0?0$0?0$0A@$0?0$0?0@Eigen@@$0?0$0?0$0A@@Eigen@@$0?0$0?0$0A@@Eigen@@$0?0$00$00@3@@Eigen@@@12@AEBU?$scalar_sum_op@NN@12@AEBV?$CwiseBinaryOp@U?$scalar_conj_product_op@NN@internal@Eigen@@$$CBV?$Transpose@$$CBV?$Block@$$CBV?$Transpose@$$CBV?$Block@V?$Block@V?$Matrix@N$0?0$0?0$0A@$0?0$0?0@Eigen@@$0?0$00$00@Eigen@@$0?0$00$0A@@Eigen@@@Eigen@@$00$0?0$00@Eigen@@@3@$$CBV?$Block@$$CBV?$Block@V?$Block@V?$Matrix@N$0?0$0?0$0A@$0?0$0?0@Eigen@@$0?0$0?0$0A@@Eigen@@$0?0$0?0$0A@@Eigen@@$0?0$00$00@3@@2@@Z
	??$run@V?$CwiseBinaryOp@U?$scalar_product_op@NN@internal@Eigen@@$$CBV?$Block@$$CBV?$Block@$$CBV?$Map@$$CBV?$Matrix@N$0?0$0?0$00$0?0$0?0@Eigen@@$0A@V?$OuterStride@$0?0@2@@Eigen@@$00$0?0$00@Eigen@@$00$0?0$0A@@3@$$CBV?$Transpose@$$CBV?$Block@$$CBV?$Map@$$CBV?$Matrix@N$0?0$00$0A@$0?0$00@Eigen@@$0A@V?$Stride@$0A@$0A@@2@@Eigen@@$0?0$00$0A@@Eigen@@@3@@Eigen@@@?$redux_impl@U?$scalar_sum_op@NN@internal@Eigen@@V?$redux_evaluator@V?$CwiseBinaryOp@U?$scalar_product_op@NN@internal@Eigen@@$$CBV?$Block@$$CBV?$Block@$$CBV?$Map@$$CBV?$Matrix@N$0?0$0?0$00$0?0$0?0@Eigen@@$0A@V?$OuterStride@$0?0@2@@Eigen@@$00$0?0$00@Eigen@@$00$0?0$0A@@3@$$CBV?$Transpose@$$CBV?$Block@$$CBV?$Map@$$CBV?$Matrix@N$0?0$00$0A@$0?0$00@Eigen@@$0A@V?$Stride@$0A@$0A@@2@@Eigen@@$0?0$00$0A@@Eigen@@@3@@Eigen@@@23@$02$0A@@internal@Eigen@@SANAEBV?$redux_evaluator@V?$CwiseBinaryOp@U?$scalar_product_op@NN@internal@Eigen@@$$CBV?$Block@$$CBV?$Block@$$CBV?$Map@$$CBV?$Matrix@N$0?0$0?0$00$0?0$0?0@Eigen@@$0A@V?$OuterStride@$0?0@2@@Eigen@@$00$0?0$00@Eigen@@$00$0?0$0A@@3@$$CBV?$Transpose@$$CBV?$Block@$$CBV?$Map@$$CBV?$Matrix@N$0?0$00$0A@$0?0$00@Eigen@@$0A@V?$Stride@$0A@$0A@@2@@Eigen@@$0?0$00$0A@@Eigen@@@3@@Eigen@@@12@AEBU?$scalar_sum_op@NN@12@AEBV?$CwiseBinaryOp@U?$scalar_product_op@NN@internal@Eigen@@$$CBV?$Block@$$CBV?$Block@$$CBV?$Map@$$CBV?$Matrix@N$0?0$0?0$00$0?0$0?0@Eigen@@$0A@V?$OuterStride@$0?0@2@@Eigen@@$00$0?0$00@Eigen@@$00$0?0$0A@@3@$$CBV?$Transpose@$$CBV?$Block@$$CBV?$Map@$$CBV?$Matrix@N$0?0$00$0A@$0?0$00@Eigen@@$0A@V?$Stride@$0A@$0A@@2@@Eigen@@$0?0$00$0A@@Eigen@@@3@@2@@Z
	??$run@V?$CwiseBinaryOp@U?$scalar_product_op@NN@internal@Eigen@@$$CBV?$Transpose@$$CBV?$Block@$$CBV?$Transpose@$$CBV?$Block@$$CBV?$Matrix@N$02$01$0A@$02$01@Eigen@@$0?0$00$0A@@Eigen@@@Eigen@@$00$0?0$00@Eigen@@@3@$$CBV?$Block@$$CBV?$Block@V?$Block@V?$Matrix@N$02$02$0A@$02$02@Eigen@@$0?0$0?0$0A@@Eigen@@$0?0$0?0$0A@@Eigen@@$0?0$00$00@3@@Eigen@@@?$redux_impl@U?$scalar_sum_op@NN@internal@Eigen@@V?$redux_evaluator@V?$CwiseBinaryOp@U?$scalar_product_op@NN@internal@Eigen@@$$CBV?$Transpose@$$CBV?$Block@$$CBV?$Transpose@$$CBV?$Block@$$CBV?$Matrix@N$02$01$0A@$02$01@Eigen@@$0?0$00$0A@@Eigen@@@Eigen@@$00$0?0$00@Eigen@@@3@$$CBV?$Block@$$CBV?$Block@V?$Block@V?$Matrix@N$02$02$0A@$02$02@Eigen@@$0?0$0?0$0A@@Eigen@@$0?0$0?0$0A@@Eigen@@$0?0$00$00@3@@Eigen@@@23@$02$0A@@internal@Eigen@@SANAEBV?$redux_evaluator@V?$CwiseBinaryOp@U?$scalar_product_op@NN@internal@Eigen@@$$CBV?$Transpose@$$CBV?$Block@$$CBV?$Transpose@$$CBV?$Block@$$CBV?$Matrix@N$02$01$0A@$02$01@Eigen@@$0?0$00$0A@@Eigen@@@Eigen@@$00$0?0$00@Eigen@@@3@$$CBV?$Block@$$CBV?$Block@V?$Block@V?$Matrix@N$02$02$0A@$02$02@Eigen@@$0?0$0?0$0A@@Eigen@@$0?0$0?0$0A@@Eigen@@$0?0$00$00@3@@Eigen@@@12@AEBU?$scalar_sum_op@NN@12@AEBV?$CwiseBinaryOp@U?$scalar_product_op@NN@internal@Eigen@@$$CBV?$Transpose@$$CBV?$Block@$$CBV?$Transpose@$$CBV?$Block@$$CBV?$Matrix@N$02$01$0A@$02$01@Eigen@@$0?0$00$0A@@Eigen@@@Eigen@@$00$0?0$00@Eigen@@@3@$$CBV?$Block@$$CBV?$Block@V?$Block@V?$Matrix@N$02$02$0A@$02$02@Eigen@@$0?0$0?0$0A@@Eigen@@$0?0$0?0$0A@@Eigen@@$0?0$00$00@3@@2@@Z
	??$run@V?$CwiseBinaryOp@U?$scalar_product_op@NN@internal@Eigen@@$$CBV?$Transpose@$$CBV?$Block@$$CBV?$Transpose@$$CBV?$Block@V?$Block@V?$Matrix@N$02$01$0A@$02$01@Eigen@@$02$00$00@Eigen@@$0?0$00$0A@@Eigen@@@Eigen@@$00$0?0$00@Eigen@@@3@$$CBV?$Block@$$CBV?$Block@V?$Block@V?$Matrix@N$02$01$0A@$02$01@Eigen@@$0?0$0?0$0A@@Eigen@@$0?0$0?0$0A@@Eigen@@$0?0$00$00@3@@Eigen@@@?$redux_impl@U?$scalar_sum_op@NN@internal@Eigen@@V?$redux_evaluator@V?$CwiseBinaryOp@U?$scalar_product_op@NN@internal@Eigen@@$$CBV?$Transpose@$$CBV?$Block@$$CBV?$Transpose@$$CBV?$Block@V?$Block@V?$Matrix@N$02$01$0A@$02$01@Eigen@@$02$00$00@Eigen@@$0?0$00$0A@@Eigen@@@Eigen@@$00$0?0$00@Eigen@@@3@$$CBV?$Block@$$CBV?$Block@V?$Block@V?$Matrix@N$02$01$0A@$02$01@Eigen@@$0?0$0?0$0A@@Eigen@@$0?0$0?0$0A@@Eigen@@$0?0$00$00@3@@Eigen@@@23@$02$0A@@internal@Eigen@@SANAEBV?$redux_evaluator@V?$CwiseBinaryOp@U?$scalar_product_op@NN@internal@Eigen@@$$CBV?$Transpose@$$CBV?$Block@$$CBV?$Transpose@$$CBV?$Block@V?$Block@V?$Matrix@N$02$01$0A@$02$01@Eigen@@$02$00$00@Eigen@@$0?0$00$0A@@Eigen@@@Eigen@@$00$0?0$00@Eigen@@@3@$$CBV?$Block@$$CBV?$Block@V?$Block@V?$Matrix@N$02$01$0A@$02$01@Eigen@@$0?0$0?0$0A@@Eigen@@$0?0$0?0$0A@@Eigen@@$0?0$00$00@3@@Eigen@@@12@AEBU?$scalar_sum_op@NN@12@AEBV?$CwiseBinaryOp@U?$scalar_product_op@NN@internal@Eigen@@$$CBV?$Transpose@$$CBV?$Block@$$CBV?$Transpose@$$CBV?$Block@V?$Block@V?$Matrix@N$02$01$0A@$02$01@Eigen@@$02$00$00@Eigen@@$0?0$00$0A@@Eigen@@@Eigen@@$00$0?0$00@Eigen@@@3@$$CBV?$Block@$$CBV?$Block@V?$Block@V?$Matrix@N$02$01$0A@$02$01@Eigen@@$0?0$0?0$0A@@Eigen@@$0?0$0?0$0A@@Eigen@@$0?0$00$00@3@@2@@Z
	??$run@V?$CwiseUnaryOp@U?$scalar_abs2_op@N@internal@Eigen@@$$CBV?$Block@$$CBV?$Block@V?$Block@V?$Matrix@N$02$01$0A@$02$01@Eigen@@$02$00$00@Eigen@@$0?0$00$0A@@Eigen@@$0?0$00$0A@@3@@Eigen@@@?$redux_impl@U?$scalar_sum_op@NN@internal@Eigen@@V?$redux_evaluator@V?$CwiseUnaryOp@U?$scalar_abs2_op@N@internal@Eigen@@$$CBV?$Block@$$CBV?$Block@V?$Block@V?$Matrix@N$02$01$0A@$02$01@Eigen@@$02$00$00@Eigen@@$0?0$00$0A@@Eigen@@$0?0$00$0A@@3@@Eigen@@@23@$02$0A@@internal@Eigen@@SANAEBV?$redux_evaluator@V?$CwiseUnaryOp@U?$scalar_abs2_op@N@internal@Eigen@@$$CBV?$Block@$$CBV?$Block@V?$Block@V?$Matrix@N$02$01$0A@$02$01@Eigen@@$02$00$00@Eigen@@$0?0$00$0A@@Eigen@@$0?0$00$0A@@3@@Eigen@@@12@AEBU?$scalar_sum_op@NN@12@AEBV?$CwiseUnaryOp@U?$scalar_abs2_op@N@internal@Eigen@@$$CBV?$Block@$$CBV?$Block@V?$Block@V?$Matrix@N$02$01$0A@$02$01@Eigen@@$02$00$00@Eigen@@$0?0$00$0A@@Eigen@@$0?0$00$0A@@3@@2@@Z
	??$run@V?$CwiseUnaryOp@U?$scalar_abs2_op@N@internal@Eigen@@$$CBV?$Block@$$CBV?$Block@V?$Block@V?$Matrix@N$0?0$0?0$0A@$0?0$0?0@Eigen@@$0?0$00$00@Eigen@@$0?0$00$0A@@Eigen@@$0?0$00$0A@@3@@Eigen@@@?$redux_impl@U?$scalar_sum_op@NN@internal@Eigen@@V?$redux_evaluator@V?$CwiseUnaryOp@U?$scalar_abs2_op@N@internal@Eigen@@$$CBV?$Block@$$CBV?$Block@V?$Block@V?$Matrix@N$0?0$0?0$0A@$0?0$0?0@Eigen@@$0?0$00$00@Eigen@@$0?0$00$0A@@Eigen@@$0?0$00$0A@@3@@Eigen@@@23@$02$0A@@internal@Eigen@@SANAEBV?$redux_evaluator@V?$CwiseUnaryOp@U?$scalar_abs2_op@N@internal@Eigen@@$$CBV?$Block@$$CBV?$Block@V?$Block@V?$Matrix@N$0?0$0?0$0A@$0?0$0?0@Eigen@@$0?0$00$00@Eigen@@$0?0$00$0A@@Eigen@@$0?0$00$0A@@3@@Eigen@@@12@AEBU?$scalar_sum_op@NN@12@AEBV?$CwiseUnaryOp@U?$scalar_abs2_op@N@internal@Eigen@@$$CBV?$Block@$$CBV?$Block@V?$Block@V?$Matrix@N$0?0$0?0$0A@$0?0$0?0@Eigen@@$0?0$00$00@Eigen@@$0?0$00$0A@@Eigen@@$0?0$00$0A@@3@@2@@Z
	??$run@V?$CwiseUnaryOp@U?$scalar_abs2_op@N@internal@Eigen@@$$CBV?$Block@V?$Block@V?$Matrix@N$02$01$0A@$02$01@Eigen@@$02$00$00@Eigen@@$0?0$00$0A@@3@@Eigen@@@?$redux_impl@U?$scalar_sum_op@NN@internal@Eigen@@V?$redux_evaluator@V?$CwiseUnaryOp@U?$scalar_abs2_op@N@internal@Eigen@@$$CBV?$Block@V?$Block@V?$Matrix@N$02$01$0A@$02$01@Eigen@@$02$00$00@Eigen@@$0?0$00$0A@@3@@Eigen@@@23@$02$0A@@internal@Eigen@@SANAEBV?$redux_evaluator@V?$CwiseUnaryOp@U?$scalar_abs2_op@N@internal@Eigen@@$$CBV?$Block@V?$Block@V?$Matrix@N$02$01$0A@$02$01@Eigen@@$02$00$00@Eigen@@$0?0$00$0A@@3@@Eigen@@@12@AEBU?$scalar_sum_op@NN@12@AEBV?$CwiseUnaryOp@U?$scalar_abs2_op@N@internal@Eigen@@$$CBV?$Block@V?$Block@V?$Matrix@N$02$01$0A@$02$01@Eigen@@$02$00$00@Eigen@@$0?0$00$0A@@3@@2@@Z
	??$run@V?$CwiseUnaryOp@U?$scalar_abs_op@N@internal@Eigen@@$$CBV?$Block@V?$Block@V?$Matrix@N$0?0$0?0$0A@$0?0$0?0@Eigen@@$0?0$00$00@Eigen@@$0?0$00$0A@@3@@Eigen@@@?$redux_impl@U?$scalar_sum_op@NN@internal@Eigen@@V?$redux_evaluator@V?$CwiseUnaryOp@U?$scalar_abs_op@N@internal@Eigen@@$$CBV?$Block@V?$Block@V?$Matrix@N$0?0$0?0$0A@$0?0$0?0@Eigen@@$0?0$00$00@Eigen@@$0?0$00$0A@@3@@Eigen@@@23@$02$0A@@internal@Eigen@@SANAEBV?$redux_evaluator@V?$CwiseUnaryOp@U?$scalar_abs_op@N@internal@Eigen@@$$CBV?$Block@V?$Block@V?$Matrix@N$0?0$0?0$0A@$0?0$0?0@Eigen@@$0?0$00$00@Eigen@@$0?0$00$0A@@3@@Eigen@@@12@AEBU?$scalar_sum_op@NN@12@AEBV?$CwiseUnaryOp@U?$scalar_abs_op@N@internal@Eigen@@$$CBV?$Block@V?$Block@V?$Matrix@N$0?0$0?0$0A@$0?0$0?0@Eigen@@$0?0$00$00@Eigen@@$0?0$00$0A@@3@@2@@Z
	??$run@V?$CwiseUnaryOp@U?$scalar_abs_op@N@internal@Eigen@@$$CBV?$Matrix@N$0?0$0?0$0A@$0?0$0?0@3@@Eigen@@@?$redux_impl@U?$scalar_max_op@NN$0A@@internal@Eigen@@V?$redux_evaluator@V?$CwiseUnaryOp@U?$scalar_abs_op@N@internal@Eigen@@$$CBV?$Matrix@N$0?0$0?0$0A@$0?0$0?0@3@@Eigen@@@23@$02$0A@@internal@Eigen@@SANAEBV?$redux_evaluator@V?$CwiseUnaryOp@U?$scalar_abs_op@N@internal@Eigen@@$$CBV?$Matrix@N$0?0$0?0$0A@$0?0$0?0@3@@Eigen@@@12@AEBU?$scalar_max_op@NN$0A@@12@AEBV?$CwiseUnaryOp@U?$scalar_abs_op@N@internal@Eigen@@$$CBV?$Matrix@N$0?0$0?0$0A@$0?0$0?0@3@@2@@Z
	??$run@V?$Map@$$CBV?$Matrix@H$0?0$00$0A@$0?0$00@Eigen@@$0A@V?$Stride@$0A@$0A@@2@@Eigen@@@?$redux_impl@U?$scalar_sum_op@HH@internal@Eigen@@V?$redux_evaluator@V?$Map@$$CBV?$Matrix@H$0?0$00$0A@$0?0$00@Eigen@@$0A@V?$Stride@$0A@$0A@@2@@Eigen@@@23@$02$0A@@internal@Eigen@@SAHAEBV?$redux_evaluator@V?$Map@$$CBV?$Matrix@H$0?0$00$0A@$0?0$00@Eigen@@$0A@V?$Stride@$0A@$0A@@2@@Eigen@@@12@AEBU?$scalar_sum_op@HH@12@AEBV?$Map@$$CBV?$Matrix@H$0?0$00$0A@$0?0$00@Eigen@@$0A@V?$Stride@$0A@$0A@@2@@2@@Z
	??$run@V?$Matrix@N$0?0$00$0A@$0?0$00@Eigen@@@?$redux_impl@U?$scalar_sum_op@NN@internal@Eigen@@V?$redux_evaluator@V?$Matrix@N$0?0$00$0A@$0?0$00@Eigen@@@23@$02$0A@@internal@Eigen@@SANAEBV?$redux_evaluator@V?$Matrix@N$0?0$00$0A@$0?0$00@Eigen@@@12@AEBU?$scalar_sum_op@NN@12@AEBV?$Matrix@N$0?0$00$0A@$0?0$00@2@@Z
	??$run@V?$Matrix@N$0?0$0?0$0A@$01$02@Eigen@@@?$triangular_product_impl@$05$00$$CBV?$Transpose@$$CBV?$Block@V?$Matrix@N$02$01$0A@$02$01@Eigen@@$0?0$0?0$0A@@Eigen@@@Eigen@@$0A@V?$Block@V?$Matrix@N$02$02$0A@$02$02@Eigen@@$0?0$0?0$0A@@2@$0A@@internal@Eigen@@SAXAEAV?$Matrix@N$0?0$0?0$0A@$01$02@2@AEBV?$Transpose@$$CBV?$Block@V?$Matrix@N$02$01$0A@$02$01@Eigen@@$0?0$0?0$0A@@Eigen@@@2@AEBV?$Block@V?$Matrix@N$02$02$0A@$02$02@Eigen@@$0?0$0?0$0A@@2@AEBN@Z
	??$run@V?$Matrix@N$0?0$0?0$0A@$0?0$02@Eigen@@@?$triangular_product_impl@$00$00$$CBV?$Transpose@$$CBV?$Matrix@N$0?0$0?0$00$0?0$0?0@Eigen@@@Eigen@@$0A@V?$Matrix@N$0?0$0?0$0A@$01$02@2@$0A@@internal@Eigen@@SAXAEAV?$Matrix@N$0?0$0?0$0A@$0?0$02@2@AEBV?$Transpose@$$CBV?$Matrix@N$0?0$0?0$00$0?0$0?0@Eigen@@@2@AEBV?$Matrix@N$0?0$0?0$0A@$01$02@2@AEBN@Z
	??$run@V?$Matrix@N$0?0$0?0$0A@$0?0$02@Eigen@@@?$triangular_product_impl@$01$00V?$Matrix@N$0?0$0?0$00$0?0$0?0@Eigen@@$0A@V?$Matrix@N$0?0$0?0$0A@$01$02@2@$0A@@internal@Eigen@@SAXAEAV?$Matrix@N$0?0$0?0$0A@$0?0$02@2@AEBV?$Matrix@N$0?0$0?0$00$0?0$0?0@2@AEBV?$Matrix@N$0?0$0?0$0A@$01$02@2@AEBN@Z
	??$run@V?$Matrix@N$0?0$0?0$0A@$0?0$0?0@Eigen@@@?$triangular_product_impl@$00$00$$CBV?$Transpose@$$CBV?$Matrix@N$0?0$0?0$00$0?0$0?0@Eigen@@@Eigen@@$0A@V?$Matrix@N$0?0$0?0$0A@$0?0$0?0@2@$0A@@internal@Eigen@@SAXAEAV?$Matrix@N$0?0$0?0$0A@$0?0$0?0@2@AEBV?$Transpose@$$CBV?$Matrix@N$0?0$0?0$00$0?0$0?0@Eigen@@@2@AEBV32@AEBN@Z
	??$run@V?$Matrix@N$0?0$0?0$0A@$0?0$0?0@Eigen@@@?$triangular_product_impl@$01$00V?$Matrix@N$0?0$0?0$00$0?0$0?0@Eigen@@$0A@V?$Matrix@N$0?0$0?0$0A@$0?0$0?0@2@$0A@@internal@Eigen@@SAXAEAV?$Matrix@N$0?0$0?0$0A@$0?0$0?0@2@AEBV?$Matrix@N$0?0$0?0$00$0?0$0?0@2@AEBV32@AEBN@Z
	??$run@V?$Matrix@N$0?0$0?0$0A@$0?0$0?0@Eigen@@@?$triangular_product_impl@$05$00$$CBV?$Transpose@$$CBV?$Block@V?$Matrix@N$0?0$0?0$0A@$0?0$0?0@Eigen@@$0?0$0?0$0A@@Eigen@@@Eigen@@$0A@V?$Block@V?$Matrix@N$0?0$0?0$0A@$0?0$0?0@Eigen@@$0?0$0?0$0A@@2@$0A@@internal@Eigen@@SAXAEAV?$Matrix@N$0?0$0?0$0A@$0?0$0?0@2@AEBV?$Transpose@$$CBV?$Block@V?$Matrix@N$0?0$0?0$0A@$0?0$0?0@Eigen@@$0?0$0?0$0A@@Eigen@@@2@AEBV?$Block@V?$Matrix@N$0?0$0?0$0A@$0?0$0?0@Eigen@@$0?0$0?0$0A@@2@AEBN@Z
	??$run@V?$Matrix@V?$complex@N@std@@$0?0$0?0$0A@$0?0$0?0@Eigen@@V?$Matrix@N$0?0$00$0A@$0?0$00@2@V?$Matrix@V?$complex@N@std@@$0?0$00$0A@$0?0$00@2@@?$gemv_dense_selector@$01$0A@$00@internal@Eigen@@SAXAEBV?$Matrix@V?$complex@N@std@@$0?0$0?0$0A@$0?0$0?0@2@AEBV?$Matrix@N$0?0$00$0A@$0?0$00@2@AEAV?$Matrix@V?$complex@N@std@@$0?0$00$0A@$0?0$00@2@AEBV?$complex@N@std@@@Z
	??$run@V?$Matrix@V?$complex@N@std@@$0?0$0?0$0A@$0?0$0?0@Eigen@@V?$Matrix@V?$complex@N@std@@$0?0$00$0A@$0?0$00@2@V32@@?$gemv_dense_selector@$01$0A@$00@internal@Eigen@@SAXAEBV?$Matrix@V?$complex@N@std@@$0?0$0?0$0A@$0?0$0?0@2@AEBV?$Matrix@V?$complex@N@std@@$0?0$00$0A@$0?0$00@2@AEAV42@AEBV?$complex@N@std@@@Z
	??$run@V?$Product@V?$Matrix@V?$complex@N@std@@$0?0$0?0$0A@$0?0$0?0@Eigen@@V?$DiagonalWrapper@$$CBV?$Matrix@V?$complex@N@std@@$0?0$00$0A@$0?0$00@Eigen@@@2@$00@Eigen@@V?$Block@$$CBV?$Matrix@V?$complex@N@std@@$0?0$0?0$0A@$0?0$0?0@Eigen@@$0?0$00$00@2@V?$Block@V?$Matrix@V?$complex@N@std@@$0?0$0?0$0A@$0?0$0?0@Eigen@@$0?0$00$00@2@@?$gemv_dense_selector@$01$0A@$0A@@internal@Eigen@@SAXAEBV?$Product@V?$Matrix@V?$complex@N@std@@$0?0$0?0$0A@$0?0$0?0@Eigen@@V?$DiagonalWrapper@$$CBV?$Matrix@V?$complex@N@std@@$0?0$00$0A@$0?0$00@Eigen@@@2@$00@2@AEBV?$Block@$$CBV?$Matrix@V?$complex@N@std@@$0?0$0?0$0A@$0?0$0?0@Eigen@@$0?0$00$00@2@AEAV?$Block@V?$Matrix@V?$complex@N@std@@$0?0$0?0$0A@$0?0$0?0@Eigen@@$0?0$00$00@2@AEBV?$complex@N@std@@@Z
	??$run@V?$Transpose@$$CBV?$Block@$$CBV?$Block@V?$Matrix@N$02$01$0A@$02$01@Eigen@@$0?0$0?0$0A@@Eigen@@$0?0$0?0$0A@@Eigen@@@Eigen@@V?$Transpose@$$CBV?$CwiseBinaryOp@U?$scalar_product_op@NN@internal@Eigen@@$$CBV?$CwiseNullaryOp@U?$scalar_constant_op@N@internal@Eigen@@$$CBV?$Matrix@N$00$0?0$00$00$02@3@@3@$$CBV?$Transpose@$$CBV?$Block@$$CBV?$Block@$$CBV?$Block@V?$Matrix@N$02$01$0A@$02$01@Eigen@@$0?0$0?0$0A@@Eigen@@$0?0$00$00@Eigen@@$0?0$00$0A@@Eigen@@@3@@Eigen@@@2@V?$Transpose@V?$Block@V?$Block@V?$Matrix@N$0?0$0?0$00$0?0$0?0@Eigen@@$00$0?0$00@Eigen@@$00$0?0$0A@@Eigen@@@2@@?$trmv_selector@$05$00@internal@Eigen@@SAXAEBV?$Transpose@$$CBV?$Block@$$CBV?$Block@V?$Matrix@N$02$01$0A@$02$01@Eigen@@$0?0$0?0$0A@@Eigen@@$0?0$0?0$0A@@Eigen@@@2@AEBV?$Transpose@$$CBV?$CwiseBinaryOp@U?$scalar_product_op@NN@internal@Eigen@@$$CBV?$CwiseNullaryOp@U?$scalar_constant_op@N@internal@Eigen@@$$CBV?$Matrix@N$00$0?0$00$00$02@3@@3@$$CBV?$Transpose@$$CBV?$Block@$$CBV?$Block@$$CBV?$Block@V?$Matrix@N$02$01$0A@$02$01@Eigen@@$0?0$0?0$0A@@Eigen@@$0?0$00$00@Eigen@@$0?0$00$0A@@Eigen@@@3@@Eigen@@@2@AEAV?$Transpose@V?$Block@V?$Block@V?$Matrix@N$0?0$0?0$00$0?0$0?0@Eigen@@$00$0?0$00@Eigen@@$00$0?0$0A@@Eigen@@@2@AEBN@Z
	??$run@V?$Transpose@$$CBV?$Block@$$CBV?$Block@V?$Matrix@N$0?0$0?0$0A@$0?0$0?0@Eigen@@$0?0$0?0$0A@@Eigen@@$0?0$0?0$0A@@Eigen@@@Eigen@@V?$Transpose@$$CBV?$CwiseBinaryOp@U?$scalar_product_op@NN@internal@Eigen@@$$CBV?$CwiseNullaryOp@U?$scalar_constant_op@N@internal@Eigen@@$$CBV?$Matrix@N$00$0?0$00$00$0?0@3@@3@$$CBV?$Transpose@$$CBV?$Block@$$CBV?$Block@$$CBV?$Block@V?$Matrix@N$0?0$0?0$0A@$0?0$0?0@Eigen@@$0?0$0?0$0A@@Eigen@@$0?0$00$00@Eigen@@$0?0$00$0A@@Eigen@@@3@@Eigen@@@2@V?$Transpose@V?$Block@V?$Block@V?$Matrix@N$0?0$0?0$00$0?0$0?0@Eigen@@$00$0?0$00@Eigen@@$00$0?0$0A@@Eigen@@@2@@?$trmv_selector@$05$00@internal@Eigen@@SAXAEBV?$Transpose@$$CBV?$Block@$$CBV?$Block@V?$Matrix@N$0?0$0?0$0A@$0?0$0?0@Eigen@@$0?0$0?0$0A@@Eigen@@$0?0$0?0$0A@@Eigen@@@2@AEBV?$Transpose@$$CBV?$CwiseBinaryOp@U?$scalar_product_op@NN@internal@Eigen@@$$CBV?$CwiseNullaryOp@U?$scalar_constant_op@N@internal@Eigen@@$$CBV?$Matrix@N$00$0?0$00$00$0?0@3@@3@$$CBV?$Transpose@$$CBV?$Block@$$CBV?$Block@$$CBV?$Block@V?$Matrix@N$0?0$0?0$0A@$0?0$0?0@Eigen@@$0?0$0?0$0A@@Eigen@@$0?0$00$00@Eigen@@$0?0$00$0A@@Eigen@@@3@@Eigen@@@2@AEAV?$Transpose@V?$Block@V?$Block@V?$Matrix@N$0?0$0?0$00$0?0$0?0@Eigen@@$00$0?0$00@Eigen@@$00$0?0$0A@@Eigen@@@2@AEBN@Z
	??$run@V?$Transpose@$$CBV?$Block@V?$Block@V?$Matrix@N$0?0$0?0$0A@$0?0$0?0@Eigen@@$0?0$0?0$0A@@Eigen@@$0?0$0?0$0A@@Eigen@@@Eigen@@V?$Transpose@$$CBV?$Transpose@$$CBV?$Block@$$CBV?$Matrix@N$0?0$0?0$0A@$0?0$0?0@Eigen@@$0?0$00$0A@@Eigen@@@Eigen@@@2@V?$Transpose@V?$Map@V?$Matrix@N$00$0?0$00$00$0?0@Eigen@@$0A@V?$Stride@$0A@$0A@@2@@Eigen@@@2@@?$gemv_dense_selector@$01$00$00@internal@Eigen@@SAXAEBV?$Transpose@$$CBV?$Block@V?$Block@V?$Matrix@N$0?0$0?0$0A@$0?0$0?0@Eigen@@$0?0$0?0$0A@@Eigen@@$0?0$0?0$0A@@Eigen@@@2@AEBV?$Transpose@$$CBV?$Transpose@$$CBV?$Block@$$CBV?$Matrix@N$0?0$0?0$0A@$0?0$0?0@Eigen@@$0?0$00$0A@@Eigen@@@Eigen@@@2@AEAV?$Transpose@V?$Map@V?$Matrix@N$00$0?0$00$00$0?0@Eigen@@$0A@V?$Stride@$0A@$0A@@2@@Eigen@@@2@AEBN@Z
	??$run@V?$Transpose@$$CBV?$Block@V?$Block@V?$Matrix@N$0?0$0?0$0A@$0?0$0?0@Eigen@@$0?0$0?0$0A@@Eigen@@$0?0$0?0$0A@@Eigen@@@Eigen@@V?$Transpose@$$CBV?$Transpose@$$CBV?$Block@V?$Block@V?$Matrix@N$0?0$0?0$0A@$0?0$0?0@Eigen@@$0?0$00$00@Eigen@@$0?0$00$0A@@Eigen@@@Eigen@@@2@V?$Transpose@V?$Map@V?$Matrix@N$00$0?0$00$00$0?0@Eigen@@$0A@V?$Stride@$0A@$0A@@2@@Eigen@@@2@@?$gemv_dense_selector@$01$00$00@internal@Eigen@@SAXAEBV?$Transpose@$$CBV?$Block@V?$Block@V?$Matrix@N$0?0$0?0$0A@$0?0$0?0@Eigen@@$0?0$0?0$0A@@Eigen@@$0?0$0?0$0A@@Eigen@@@2@AEBV?$Transpose@$$CBV?$Transpose@$$CBV?$Block@V?$Block@V?$Matrix@N$0?0$0?0$0A@$0?0$0?0@Eigen@@$0?0$00$00@Eigen@@$0?0$00$0A@@Eigen@@@Eigen@@@2@AEAV?$Transpose@V?$Map@V?$Matrix@N$00$0?0$00$00$0?0@Eigen@@$0A@V?$Stride@$0A@$0A@@2@@Eigen@@@2@AEBN@Z
	??$run@V?$Transpose@$$CBV?$Matrix@V?$complex@N@std@@$0?0$0?0$0A@$0?0$0?0@Eigen@@@Eigen@@V?$Transpose@$$CBV?$Block@$$CBV?$Product@V?$Matrix@V?$complex@N@std@@$0?0$0?0$0A@$0?0$0?0@Eigen@@V?$DiagonalWrapper@$$CBV?$Matrix@V?$complex@N@std@@$0?0$00$0A@$0?0$00@Eigen@@@2@$00@Eigen@@$00$0?0$0A@@Eigen@@@2@V?$Transpose@V?$Block@V?$Matrix@V?$complex@N@std@@$0?0$0?0$0A@$0?0$0?0@Eigen@@$00$0?0$0A@@Eigen@@@2@@?$gemv_dense_selector@$01$00$00@internal@Eigen@@SAXAEBV?$Transpose@$$CBV?$Matrix@V?$complex@N@std@@$0?0$0?0$0A@$0?0$0?0@Eigen@@@2@AEBV?$Transpose@$$CBV?$Block@$$CBV?$Product@V?$Matrix@V?$complex@N@std@@$0?0$0?0$0A@$0?0$0?0@Eigen@@V?$DiagonalWrapper@$$CBV?$Matrix@V?$complex@N@std@@$0?0$00$0A@$0?0$00@Eigen@@@2@$00@Eigen@@$00$0?0$0A@@Eigen@@@2@AEAV?$Transpose@V?$Block@V?$Matrix@V?$complex@N@std@@$0?0$0?0$0A@$0?0$0?0@Eigen@@$00$0?0$0A@@Eigen@@@2@AEBV?$complex@N@std@@@Z
	??$run@V?$Transpose@$$CBV?$Ref@V?$Matrix@V?$complex@N@std@@$0?0$0?0$0A@$0?0$0?0@Eigen@@$0A@V?$OuterStride@$0?0@2@@Eigen@@@Eigen@@V?$Transpose@$$CBV?$Block@$$CBV?$Ref@V?$Matrix@V?$complex@N@std@@$0?0$0?0$0A@$0?0$0?0@Eigen@@$0A@V?$OuterStride@$0?0@2@@Eigen@@$00$0?0$0A@@Eigen@@@2@V?$Transpose@V?$Block@V?$Ref@V?$Matrix@V?$complex@N@std@@$0?0$0?0$0A@$0?0$0?0@Eigen@@$0A@V?$OuterStride@$0?0@2@@Eigen@@$00$0?0$0A@@Eigen@@@2@@?$gemv_dense_selector@$01$00$00@internal@Eigen@@SAXAEBV?$Transpose@$$CBV?$Ref@V?$Matrix@V?$complex@N@std@@$0?0$0?0$0A@$0?0$0?0@Eigen@@$0A@V?$OuterStride@$0?0@2@@Eigen@@@2@AEBV?$Transpose@$$CBV?$Block@$$CBV?$Ref@V?$Matrix@V?$complex@N@std@@$0?0$0?0$0A@$0?0$0?0@Eigen@@$0A@V?$OuterStride@$0?0@2@@Eigen@@$00$0?0$0A@@Eigen@@@2@AEAV?$Transpose@V?$Block@V?$Ref@V?$Matrix@V?$complex@N@std@@$0?0$0?0$0A@$0?0$0?0@Eigen@@$0A@V?$OuterStride@$0?0@2@@Eigen@@$00$0?0$0A@@Eigen@@@2@AEBV?$complex@N@std@@@Z
	??$run@V?$generic_dense_assignment_kernel@U?$evaluator@V?$Block@V?$Block@V?$Block@V?$Matrix@N$02$01$0A@$02$01@Eigen@@$02$00$00@Eigen@@$0?0$00$0A@@Eigen@@$0?0$00$0A@@Eigen@@@internal@Eigen@@U?$evaluator@V?$CwiseBinaryOp@U?$scalar_quotient_op@NN@internal@Eigen@@$$CBV?$Block@$$CBV?$Block@V?$Block@V?$Matrix@N$02$01$0A@$02$01@Eigen@@$02$00$00@Eigen@@$0?0$00$0A@@Eigen@@$0?0$00$0A@@3@$$CBV?$CwiseNullaryOp@U?$scalar_constant_op@N@internal@Eigen@@$$CBV?$Matrix@N$0?0$00$0A@$02$00@3@@3@@Eigen@@@23@U?$assign_op@NN@23@$0A@@internal@Eigen@@@?$unaligned_dense_assignment_loop@$0A@@internal@Eigen@@SAXAEAV?$generic_dense_assignment_kernel@U?$evaluator@V?$Block@V?$Block@V?$Block@V?$Matrix@N$02$01$0A@$02$01@Eigen@@$02$00$00@Eigen@@$0?0$00$0A@@Eigen@@$0?0$00$0A@@Eigen@@@internal@Eigen@@U?$evaluator@V?$CwiseBinaryOp@U?$scalar_quotient_op@NN@internal@Eigen@@$$CBV?$Block@$$CBV?$Block@V?$Block@V?$Matrix@N$02$01$0A@$02$01@Eigen@@$02$00$00@Eigen@@$0?0$00$0A@@Eigen@@$0?0$00$0A@@3@$$CBV?$CwiseNullaryOp@U?$scalar_constant_op@N@internal@Eigen@@$$CBV?$Matrix@N$0?0$00$0A@$02$00@3@@3@@Eigen@@@23@U?$assign_op@NN@23@$0A@@12@_J1@Z
	??$run@V?$generic_dense_assignment_kernel@U?$evaluator@V?$Block@V?$Block@V?$Block@V?$Matrix@N$02$01$0A@$02$01@Eigen@@$02$00$00@Eigen@@$0?0$00$0A@@Eigen@@$0?0$00$0A@@Eigen@@@internal@Eigen@@U?$evaluator@V?$CwiseNullaryOp@U?$scalar_constant_op@N@internal@Eigen@@V?$Matrix@N$0?0$00$0A@$02$00@3@@Eigen@@@23@U?$assign_op@NN@23@$0A@@internal@Eigen@@@?$unaligned_dense_assignment_loop@$0A@@internal@Eigen@@SAXAEAV?$generic_dense_assignment_kernel@U?$evaluator@V?$Block@V?$Block@V?$Block@V?$Matrix@N$02$01$0A@$02$01@Eigen@@$02$00$00@Eigen@@$0?0$00$0A@@Eigen@@$0?0$00$0A@@Eigen@@@internal@Eigen@@U?$evaluator@V?$CwiseNullaryOp@U?$scalar_constant_op@N@internal@Eigen@@V?$Matrix@N$0?0$00$0A@$02$00@3@@Eigen@@@23@U?$assign_op@NN@23@$0A@@12@_J1@Z
	??$run@V?$generic_dense_assignment_kernel@U?$evaluator@V?$Block@V?$Block@V?$Block@V?$Matrix@N$0?0$0?0$0A@$0?0$0?0@Eigen@@$0?0$00$00@Eigen@@$0?0$00$0A@@Eigen@@$0?0$00$0A@@Eigen@@@internal@Eigen@@U?$evaluator@V?$CwiseBinaryOp@U?$scalar_quotient_op@NN@internal@Eigen@@$$CBV?$Block@$$CBV?$Block@V?$Block@V?$Matrix@N$0?0$0?0$0A@$0?0$0?0@Eigen@@$0?0$00$00@Eigen@@$0?0$00$0A@@Eigen@@$0?0$00$0A@@3@$$CBV?$CwiseNullaryOp@U?$scalar_constant_op@N@internal@Eigen@@$$CBV?$Matrix@N$0?0$00$0A@$0?0$00@3@@3@@Eigen@@@23@U?$assign_op@NN@23@$0A@@internal@Eigen@@@?$unaligned_dense_assignment_loop@$0A@@internal@Eigen@@SAXAEAV?$generic_dense_assignment_kernel@U?$evaluator@V?$Block@V?$Block@V?$Block@V?$Matrix@N$0?0$0?0$0A@$0?0$0?0@Eigen@@$0?0$00$00@Eigen@@$0?0$00$0A@@Eigen@@$0?0$00$0A@@Eigen@@@internal@Eigen@@U?$evaluator@V?$CwiseBinaryOp@U?$scalar_quotient_op@NN@internal@Eigen@@$$CBV?$Block@$$CBV?$Block@V?$Block@V?$Matrix@N$0?0$0?0$0A@$0?0$0?0@Eigen@@$0?0$00$00@Eigen@@$0?0$00$0A@@Eigen@@$0?0$00$0A@@3@$$CBV?$CwiseNullaryOp@U?$scalar_constant_op@N@internal@Eigen@@$$CBV?$Matrix@N$0?0$00$0A@$0?0$00@3@@3@@Eigen@@@23@U?$assign_op@NN@23@$0A@@12@_J1@Z
	??$run@V?$generic_dense_assignment_kernel@U?$evaluator@V?$Block@V?$Block@V?$Block@V?$Matrix@N$0?0$0?0$0A@$0?0$0?0@Eigen@@$0?0$00$00@Eigen@@$0?0$00$0A@@Eigen@@$0?0$00$0A@@Eigen@@@internal@Eigen@@U?$evaluator@V?$CwiseNullaryOp@U?$scalar_constant_op@N@internal@Eigen@@V?$Matrix@N$0?0$00$0A@$0?0$00@3@@Eigen@@@23@U?$assign_op@NN@23@$0A@@internal@Eigen@@@?$unaligned_dense_assignment_loop@$0A@@internal@Eigen@@SAXAEAV?$generic_dense_assignment_kernel@U?$evaluator@V?$Block@V?$Block@V?$Block@V?$Matrix@N$0?0$0?0$0A@$0?0$0?0@Eigen@@$0?0$00$00@Eigen@@$0?0$00$0A@@Eigen@@$0?0$00$0A@@Eigen@@@internal@Eigen@@U?$evaluator@V?$CwiseNullaryOp@U?$scalar_constant_op@N@internal@Eigen@@V?$Matrix@N$0?0$00$0A@$0?0$00@3@@Eigen@@@23@U?$assign_op@NN@23@$0A@@12@_J1@Z
	??$run@V?$generic_dense_assignment_kernel@U?$evaluator@V?$Block@V?$Block@V?$Block@V?$Matrix@N$0?0$0?0$0A@$0?0$0?0@Eigen@@$0?0$0?0$00@Eigen@@$0?0$0?0$0A@@Eigen@@$0?0$00$00@Eigen@@@internal@Eigen@@U?$evaluator@V?$CwiseBinaryOp@U?$scalar_product_op@NN@internal@Eigen@@$$CBV?$CwiseNullaryOp@U?$scalar_constant_op@N@internal@Eigen@@$$CBV?$Matrix@N$0?0$00$0A@$0?0$00@3@@3@$$CBV?$Map@V?$Matrix@N$0?0$00$0A@$0?0$00@Eigen@@$0BA@V?$Stride@$0A@$0A@@2@@3@@Eigen@@@23@U?$sub_assign_op@NN@23@$0A@@internal@Eigen@@@?$unaligned_dense_assignment_loop@$0A@@internal@Eigen@@SAXAEAV?$generic_dense_assignment_kernel@U?$evaluator@V?$Block@V?$Block@V?$Block@V?$Matrix@N$0?0$0?0$0A@$0?0$0?0@Eigen@@$0?0$0?0$00@Eigen@@$0?0$0?0$0A@@Eigen@@$0?0$00$00@Eigen@@@internal@Eigen@@U?$evaluator@V?$CwiseBinaryOp@U?$scalar_product_op@NN@internal@Eigen@@$$CBV?$CwiseNullaryOp@U?$scalar_constant_op@N@internal@Eigen@@$$CBV?$Matrix@N$0?0$00$0A@$0?0$00@3@@3@$$CBV?$Map@V?$Matrix@N$0?0$00$0A@$0?0$00@Eigen@@$0BA@V?$Stride@$0A@$0A@@2@@3@@Eigen@@@23@U?$sub_assign_op@NN@23@$0A@@12@_J1@Z
	??$run@V?$generic_dense_assignment_kernel@U?$evaluator@V?$Block@V?$Block@V?$Block@V?$Matrix@N$0?0$0?0$0A@$0?0$0?0@Eigen@@$0?0$0?0$0A@@Eigen@@$0?0$0?0$0A@@Eigen@@$0?0$00$00@Eigen@@@internal@Eigen@@U?$evaluator@V?$CwiseBinaryOp@U?$scalar_product_op@NN@internal@Eigen@@$$CBV?$CwiseNullaryOp@U?$scalar_constant_op@N@internal@Eigen@@$$CBV?$Matrix@N$0?0$00$0A@$0?0$00@3@@3@$$CBV?$Map@V?$Matrix@N$0?0$00$0A@$0?0$00@Eigen@@$0BA@V?$Stride@$0A@$0A@@2@@3@@Eigen@@@23@U?$sub_assign_op@NN@23@$0A@@internal@Eigen@@@?$unaligned_dense_assignment_loop@$0A@@internal@Eigen@@SAXAEAV?$generic_dense_assignment_kernel@U?$evaluator@V?$Block@V?$Block@V?$Block@V?$Matrix@N$0?0$0?0$0A@$0?0$0?0@Eigen@@$0?0$0?0$0A@@Eigen@@$0?0$0?0$0A@@Eigen@@$0?0$00$00@Eigen@@@internal@Eigen@@U?$evaluator@V?$CwiseBinaryOp@U?$scalar_product_op@NN@internal@Eigen@@$$CBV?$CwiseNullaryOp@U?$scalar_constant_op@N@internal@Eigen@@$$CBV?$Matrix@N$0?0$00$0A@$0?0$00@3@@3@$$CBV?$Map@V?$Matrix@N$0?0$00$0A@$0?0$00@Eigen@@$0BA@V?$Stride@$0A@$0A@@2@@3@@Eigen@@@23@U?$sub_assign_op@NN@23@$0A@@12@_J1@Z
	??$run@V?$generic_dense_assignment_kernel@U?$evaluator@V?$Block@V?$Block@V?$Matrix@N$02$02$0A@$02$02@Eigen@@$02$00$00@Eigen@@$0?0$00$0A@@Eigen@@@internal@Eigen@@U?$evaluator@V?$CwiseNullaryOp@U?$scalar_constant_op@N@internal@Eigen@@V?$Matrix@N$0?0$00$0A@$02$00@3@@Eigen@@@23@U?$assign_op@NN@23@$0A@@internal@Eigen@@@?$unaligned_dense_assignment_loop@$0A@@internal@Eigen@@SAXAEAV?$generic_dense_assignment_kernel@U?$evaluator@V?$Block@V?$Block@V?$Matrix@N$02$02$0A@$02$02@Eigen@@$02$00$00@Eigen@@$0?0$00$0A@@Eigen@@@internal@Eigen@@U?$evaluator@V?$CwiseNullaryOp@U?$scalar_constant_op@N@internal@Eigen@@V?$Matrix@N$0?0$00$0A@$02$00@3@@Eigen@@@23@U?$assign_op@NN@23@$0A@@12@_J1@Z
	??$run@V?$generic_dense_assignment_kernel@U?$evaluator@V?$Block@V?$Block@V?$Matrix@N$02$02$0A@$02$02@Eigen@@$0?0$0?0$0A@@Eigen@@$0?0$00$00@Eigen@@@internal@Eigen@@U?$evaluator@V?$CwiseBinaryOp@U?$scalar_product_op@NN@internal@Eigen@@$$CBV?$CwiseNullaryOp@U?$scalar_constant_op@N@internal@Eigen@@$$CBV?$Matrix@N$0?0$00$0A@$02$00@3@@3@$$CBV?$Map@V?$Matrix@N$0?0$00$0A@$02$00@Eigen@@$0A@V?$Stride@$0A@$0A@@2@@3@@Eigen@@@23@U?$sub_assign_op@NN@23@$0A@@internal@Eigen@@@?$unaligned_dense_assignment_loop@$0A@@internal@Eigen@@SAXAEAV?$generic_dense_assignment_kernel@U?$evaluator@V?$Block@V?$Block@V?$Matrix@N$02$02$0A@$02$02@Eigen@@$0?0$0?0$0A@@Eigen@@$0?0$00$00@Eigen@@@internal@Eigen@@U?$evaluator@V?$CwiseBinaryOp@U?$scalar_product_op@NN@internal@Eigen@@$$CBV?$CwiseNullaryOp@U?$scalar_constant_op@N@internal@Eigen@@$$CBV?$Matrix@N$0?0$00$0A@$02$00@3@@3@$$CBV?$Map@V?$Matrix@N$0?0$00$0A@$02$00@Eigen@@$0A@V?$Stride@$0A@$0A@@2@@3@@Eigen@@@23@U?$sub_assign_op@NN@23@$0A@@12@_J1@Z
	??$run@V?$generic_dense_assignment_kernel@U?$evaluator@V?$Block@V?$Block@V?$Matrix@N$0?0$0?0$00$0?0$0?0@Eigen@@$00$0?0$00@Eigen@@$00$0?0$0A@@Eigen@@@internal@Eigen@@U?$evaluator@V?$CwiseBinaryOp@U?$scalar_product_op@NN@internal@Eigen@@$$CBV?$CwiseNullaryOp@U?$scalar_constant_op@N@internal@Eigen@@$$CBV?$Matrix@N$00$0?0$00$00$0?0@3@@3@$$CBV?$Block@V?$Block@V?$Matrix@N$0?0$0?0$00$0?0$0?0@Eigen@@$00$0?0$00@Eigen@@$00$0?0$0A@@3@@Eigen@@@23@U?$add_assign_op@NN@23@$0A@@internal@Eigen@@@?$unaligned_dense_assignment_loop@$0A@@internal@Eigen@@SAXAEAV?$generic_dense_assignment_kernel@U?$evaluator@V?$Block@V?$Block@V?$Matrix@N$0?0$0?0$00$0?0$0?0@Eigen@@$00$0?0$00@Eigen@@$00$0?0$0A@@Eigen@@@internal@Eigen@@U?$evaluator@V?$CwiseBinaryOp@U?$scalar_product_op@NN@internal@Eigen@@$$CBV?$CwiseNullaryOp@U?$scalar_constant_op@N@internal@Eigen@@$$CBV?$Matrix@N$00$0?0$00$00$0?0@3@@3@$$CBV?$Block@V?$Block@V?$Matrix@N$0?0$0?0$00$0?0$0?0@Eigen@@$00$0?0$00@Eigen@@$00$0?0$0A@@3@@Eigen@@@23@U?$add_assign_op@NN@23@$0A@@12@_J1@Z
	??$run@V?$generic_dense_assignment_kernel@U?$evaluator@V?$Block@V?$Block@V?$Matrix@N$0?0$0?0$00$0?0$0?0@Eigen@@$00$0?0$00@Eigen@@$00$0?0$0A@@Eigen@@@internal@Eigen@@U?$evaluator@V?$CwiseNullaryOp@U?$scalar_constant_op@N@internal@Eigen@@V?$Matrix@N$00$0?0$00$00$0?0@3@@Eigen@@@23@U?$assign_op@NN@23@$0A@@internal@Eigen@@@?$unaligned_dense_assignment_loop@$0A@@internal@Eigen@@SAXAEAV?$generic_dense_assignment_kernel@U?$evaluator@V?$Block@V?$Block@V?$Matrix@N$0?0$0?0$00$0?0$0?0@Eigen@@$00$0?0$00@Eigen@@$00$0?0$0A@@Eigen@@@internal@Eigen@@U?$evaluator@V?$CwiseNullaryOp@U?$scalar_constant_op@N@internal@Eigen@@V?$Matrix@N$00$0?0$00$00$0?0@3@@Eigen@@@23@U?$assign_op@NN@23@$0A@@12@_J1@Z
	??$run@V?$generic_dense_assignment_kernel@U?$evaluator@V?$Block@V?$Block@V?$Matrix@N$0?0$0?0$0A@$0?0$0?0@Eigen@@$0?0$00$00@Eigen@@$0?0$00$0A@@Eigen@@@internal@Eigen@@U?$evaluator@V?$CwiseNullaryOp@U?$scalar_constant_op@N@internal@Eigen@@V?$Matrix@N$0?0$00$0A@$0?0$00@3@@Eigen@@@23@U?$assign_op@NN@23@$0A@@internal@Eigen@@@?$unaligned_dense_assignment_loop@$0A@@internal@Eigen@@SAXAEAV?$generic_dense_assignment_kernel@U?$evaluator@V?$Block@V?$Block@V?$Matrix@N$0?0$0?0$0A@$0?0$0?0@Eigen@@$0?0$00$00@Eigen@@$0?0$00$0A@@Eigen@@@internal@Eigen@@U?$evaluator@V?$CwiseNullaryOp@U?$scalar_constant_op@N@internal@Eigen@@V?$Matrix@N$0?0$00$0A@$0?0$00@3@@Eigen@@@23@U?$assign_op@NN@23@$0A@@12@_J1@Z
	??$run@V?$generic_dense_assignment_kernel@U?$evaluator@V?$Block@V?$Block@V?$Matrix@N$0?0$0?0$0A@$0?0$0?0@Eigen@@$0?0$00$00@Eigen@@$0?0$00$0A@@Eigen@@@internal@Eigen@@U?$evaluator@V?$CwiseNullaryOp@U?$scalar_constant_op@N@internal@Eigen@@V?$Matrix@N$0?0$00$0A@$0?0$00@3@@Eigen@@@23@U?$div_assign_op@NN@23@$0A@@internal@Eigen@@@?$unaligned_dense_assignment_loop@$0A@@internal@Eigen@@SAXAEAV?$generic_dense_assignment_kernel@U?$evaluator@V?$Block@V?$Block@V?$Matrix@N$0?0$0?0$0A@$0?0$0?0@Eigen@@$0?0$00$00@Eigen@@$0?0$00$0A@@Eigen@@@internal@Eigen@@U?$evaluator@V?$CwiseNullaryOp@U?$scalar_constant_op@N@internal@Eigen@@V?$Matrix@N$0?0$00$0A@$0?0$00@3@@Eigen@@@23@U?$div_assign_op@NN@23@$0A@@12@_J1@Z
	??$run@V?$generic_dense_assignment_kernel@U?$evaluator@V?$Block@V?$Block@V?$Matrix@N$0?0$0?0$0A@$0?0$0?0@Eigen@@$0?0$0?0$00@Eigen@@$0?0$00$00@Eigen@@@internal@Eigen@@U?$evaluator@V?$CwiseBinaryOp@U?$scalar_product_op@NN@internal@Eigen@@$$CBV?$CwiseNullaryOp@U?$scalar_constant_op@N@internal@Eigen@@$$CBV?$Matrix@N$0?0$00$0A@$0?0$00@3@@3@$$CBV?$Map@V?$Matrix@N$0?0$00$0A@$0?0$00@Eigen@@$0A@V?$Stride@$0A@$0A@@2@@3@@Eigen@@@23@U?$sub_assign_op@NN@23@$0A@@internal@Eigen@@@?$unaligned_dense_assignment_loop@$0A@@internal@Eigen@@SAXAEAV?$generic_dense_assignment_kernel@U?$evaluator@V?$Block@V?$Block@V?$Matrix@N$0?0$0?0$0A@$0?0$0?0@Eigen@@$0?0$0?0$00@Eigen@@$0?0$00$00@Eigen@@@internal@Eigen@@U?$evaluator@V?$CwiseBinaryOp@U?$scalar_product_op@NN@internal@Eigen@@$$CBV?$CwiseNullaryOp@U?$scalar_constant_op@N@internal@Eigen@@$$CBV?$Matrix@N$0?0$00$0A@$0?0$00@3@@3@$$CBV?$Map@V?$Matrix@N$0?0$00$0A@$0?0$00@Eigen@@$0A@V?$Stride@$0A@$0A@@2@@3@@Eigen@@@23@U?$sub_assign_op@NN@23@$0A@@12@_J1@Z
	??$run@V?$generic_dense_assignment_kernel@U?$evaluator@V?$Block@V?$Block@V?$Matrix@N$0?0$0?0$0A@$0?0$0?0@Eigen@@$0?0$0?0$0A@@Eigen@@$0?0$00$00@Eigen@@@internal@Eigen@@U?$evaluator@V?$CwiseBinaryOp@U?$scalar_product_op@NN@internal@Eigen@@$$CBV?$CwiseNullaryOp@U?$scalar_constant_op@N@internal@Eigen@@$$CBV?$Matrix@N$0?0$00$0A@$0?0$00@3@@3@$$CBV?$Map@V?$Matrix@N$0?0$00$0A@$0?0$00@Eigen@@$0A@V?$Stride@$0A@$0A@@2@@3@@Eigen@@@23@U?$sub_assign_op@NN@23@$0A@@internal@Eigen@@@?$unaligned_dense_assignment_loop@$0A@@internal@Eigen@@SAXAEAV?$generic_dense_assignment_kernel@U?$evaluator@V?$Block@V?$Block@V?$Matrix@N$0?0$0?0$0A@$0?0$0?0@Eigen@@$0?0$0?0$0A@@Eigen@@$0?0$00$00@Eigen@@@internal@Eigen@@U?$evaluator@V?$CwiseBinaryOp@U?$scalar_product_op@NN@internal@Eigen@@$$CBV?$CwiseNullaryOp@U?$scalar_constant_op@N@internal@Eigen@@$$CBV?$Matrix@N$0?0$00$0A@$0?0$00@3@@3@$$CBV?$Map@V?$Matrix@N$0?0$00$0A@$0?0$00@Eigen@@$0A@V?$Stride@$0A@$0A@@2@@3@@Eigen@@@23@U?$sub_assign_op@NN@23@$0A@@12@_J1@Z
	??$run@V?$generic_dense_assignment_kernel@U?$evaluator@V?$Block@V?$Block@V?$Matrix@N$0?0$0?0$0A@$0?0$0?0@Eigen@@$0?0$0?0$0A@@Eigen@@$0?0$00$0A@@Eigen@@@internal@Eigen@@U?$evaluator@V?$Product@V?$CwiseBinaryOp@U?$scalar_product_op@NN@internal@Eigen@@$$CBV?$CwiseNullaryOp@U?$scalar_constant_op@N@internal@Eigen@@$$CBV?$Matrix@N$0?0$00$0A@$0?0$00@3@@3@$$CBV?$Map@V?$Matrix@N$0?0$00$0A@$0?0$00@Eigen@@$0A@V?$Stride@$0A@$0A@@2@@3@@Eigen@@V?$Transpose@$$CBV?$Matrix@N$00$00$0A@$00$00@Eigen@@@2@$00@Eigen@@@23@U?$sub_assign_op@NN@23@$0A@@internal@Eigen@@@?$unaligned_dense_assignment_loop@$0A@@internal@Eigen@@SAXAEAV?$generic_dense_assignment_kernel@U?$evaluator@V?$Block@V?$Block@V?$Matrix@N$0?0$0?0$0A@$0?0$0?0@Eigen@@$0?0$0?0$0A@@Eigen@@$0?0$00$0A@@Eigen@@@internal@Eigen@@U?$evaluator@V?$Product@V?$CwiseBinaryOp@U?$scalar_product_op@NN@internal@Eigen@@$$CBV?$CwiseNullaryOp@U?$scalar_constant_op@N@internal@Eigen@@$$CBV?$Matrix@N$0?0$00$0A@$0?0$00@3@@3@$$CBV?$Map@V?$Matrix@N$0?0$00$0A@$0?0$00@Eigen@@$0A@V?$Stride@$0A@$0A@@2@@3@@Eigen@@V?$Transpose@$$CBV?$Matrix@N$00$00$0A@$00$00@Eigen@@@2@$00@Eigen@@@23@U?$sub_assign_op@NN@23@$0A@@12@_J1@Z
	??$run@V?$generic_dense_assignment_kernel@U?$evaluator@V?$Block@V?$Block@V?$Ref@V?$Matrix@V?$complex@N@std@@$0?0$0?0$0A@$0?0$0?0@Eigen@@$0A@V?$OuterStride@$0?0@2@@Eigen@@$0?0$00$00@Eigen@@$0?0$00$0A@@Eigen@@@internal@Eigen@@U?$evaluator@V?$CwiseNullaryOp@U?$scalar_constant_op@V?$complex@N@std@@@internal@Eigen@@V?$Matrix@V?$complex@N@std@@$0?0$00$0A@$0?0$00@3@@Eigen@@@23@U?$div_assign_op@V?$complex@N@std@@V12@@23@$0A@@internal@Eigen@@@?$unaligned_dense_assignment_loop@$0A@@internal@Eigen@@SAXAEAV?$generic_dense_assignment_kernel@U?$evaluator@V?$Block@V?$Block@V?$Ref@V?$Matrix@V?$complex@N@std@@$0?0$0?0$0A@$0?0$0?0@Eigen@@$0A@V?$OuterStride@$0?0@2@@Eigen@@$0?0$00$00@Eigen@@$0?0$00$0A@@Eigen@@@internal@Eigen@@U?$evaluator@V?$CwiseNullaryOp@U?$scalar_constant_op@V?$complex@N@std@@@internal@Eigen@@V?$Matrix@V?$complex@N@std@@$0?0$00$0A@$0?0$00@3@@Eigen@@@23@U?$div_assign_op@V?$complex@N@std@@V12@@23@$0A@@12@_J1@Z
	??$run@V?$generic_dense_assignment_kernel@U?$evaluator@V?$Block@V?$Block@V?$Ref@V?$Matrix@V?$complex@N@std@@$0?0$0?0$0A@$0?0$0?0@Eigen@@$0A@V?$OuterStride@$0?0@2@@Eigen@@$0?0$0?0$0A@@Eigen@@$0?0$00$00@Eigen@@@internal@Eigen@@U?$evaluator@V?$CwiseBinaryOp@U?$scalar_product_op@V?$complex@N@std@@V12@@internal@Eigen@@$$CBV?$CwiseNullaryOp@U?$scalar_constant_op@V?$complex@N@std@@@internal@Eigen@@$$CBV?$Matrix@V?$complex@N@std@@$0?0$00$0A@$0?0$00@3@@3@$$CBV?$Block@V?$Block@V?$Ref@V?$Matrix@V?$complex@N@std@@$0?0$0?0$0A@$0?0$0?0@Eigen@@$0A@V?$OuterStride@$0?0@2@@Eigen@@$0?0$00$00@Eigen@@$0?0$00$0A@@3@@Eigen@@@23@U?$sub_assign_op@V?$complex@N@std@@V12@@23@$0A@@internal@Eigen@@@?$unaligned_dense_assignment_loop@$0A@@internal@Eigen@@SAXAEAV?$generic_dense_assignment_kernel@U?$evaluator@V?$Block@V?$Block@V?$Ref@V?$Matrix@V?$complex@N@std@@$0?0$0?0$0A@$0?0$0?0@Eigen@@$0A@V?$OuterStride@$0?0@2@@Eigen@@$0?0$0?0$0A@@Eigen@@$0?0$00$00@Eigen@@@internal@Eigen@@U?$evaluator@V?$CwiseBinaryOp@U?$scalar_product_op@V?$complex@N@std@@V12@@internal@Eigen@@$$CBV?$CwiseNullaryOp@U?$scalar_constant_op@V?$complex@N@std@@@internal@Eigen@@$$CBV?$Matrix@V?$complex@N@std@@$0?0$00$0A@$0?0$00@3@@3@$$CBV?$Block@V?$Block@V?$Ref@V?$Matrix@V?$complex@N@std@@$0?0$0?0$0A@$0?0$0?0@Eigen@@$0A@V?$OuterStride@$0?0@2@@Eigen@@$0?0$00$00@Eigen@@$0?0$00$0A@@3@@Eigen@@@23@U?$sub_assign_op@V?$complex@N@std@@V12@@23@$0A@@12@_J1@Z
	??$run@V?$generic_dense_assignment_kernel@U?$evaluator@V?$Block@V?$Matrix@N$0?0$0?0$0A@$0?0$0?0@Eigen@@$0?0$00$00@Eigen@@@internal@Eigen@@U?$evaluator@V?$Matrix@N$0?0$00$0A@$0?0$00@Eigen@@@23@U?$assign_op@NN@23@$0A@@internal@Eigen@@@?$unaligned_dense_assignment_loop@$0A@@internal@Eigen@@SAXAEAV?$generic_dense_assignment_kernel@U?$evaluator@V?$Block@V?$Matrix@N$0?0$0?0$0A@$0?0$0?0@Eigen@@$0?0$00$00@Eigen@@@internal@Eigen@@U?$evaluator@V?$Matrix@N$0?0$00$0A@$0?0$00@Eigen@@@23@U?$assign_op@NN@23@$0A@@12@_J1@Z
	??$run@V?$generic_dense_assignment_kernel@U?$evaluator@V?$Block@V?$Matrix@N$0?0$0?0$0A@$0?0$0?0@Eigen@@$0?0$0?0$00@Eigen@@@internal@Eigen@@U?$evaluator@V?$CwiseNullaryOp@U?$scalar_constant_op@N@internal@Eigen@@V?$Matrix@N$0?0$0?0$0A@$0?0$0?0@3@@Eigen@@@23@U?$mul_assign_op@NN@23@$0A@@internal@Eigen@@@?$unaligned_dense_assignment_loop@$0A@@internal@Eigen@@SAXAEAV?$generic_dense_assignment_kernel@U?$evaluator@V?$Block@V?$Matrix@N$0?0$0?0$0A@$0?0$0?0@Eigen@@$0?0$0?0$00@Eigen@@@internal@Eigen@@U?$evaluator@V?$CwiseNullaryOp@U?$scalar_constant_op@N@internal@Eigen@@V?$Matrix@N$0?0$0?0$0A@$0?0$0?0@3@@Eigen@@@23@U?$mul_assign_op@NN@23@$0A@@12@_J1@Z
	??$run@V?$generic_dense_assignment_kernel@U?$evaluator@V?$Block@V?$Matrix@V?$complex@N@std@@$0?0$0?0$0A@$0?0$0?0@Eigen@@$0?0$00$00@Eigen@@@internal@Eigen@@U?$evaluator@V?$CwiseBinaryOp@U?$scalar_product_op@V?$complex@N@std@@V12@@internal@Eigen@@$$CBV?$CwiseNullaryOp@U?$scalar_constant_op@V?$complex@N@std@@@internal@Eigen@@$$CBV?$Matrix@V?$complex@N@std@@$0?0$00$0A@$0?0$00@3@@3@$$CBV?$Block@$$CBV?$Product@V?$Matrix@V?$complex@N@std@@$0?0$0?0$0A@$0?0$0?0@Eigen@@V?$DiagonalWrapper@$$CBV?$Matrix@V?$complex@N@std@@$0?0$00$0A@$0?0$00@Eigen@@@2@$00@Eigen@@$0?0$00$00@3@@Eigen@@@23@U?$add_assign_op@V?$complex@N@std@@V12@@23@$0A@@internal@Eigen@@@?$unaligned_dense_assignment_loop@$0A@@internal@Eigen@@SAXAEAV?$generic_dense_assignment_kernel@U?$evaluator@V?$Block@V?$Matrix@V?$complex@N@std@@$0?0$0?0$0A@$0?0$0?0@Eigen@@$0?0$00$00@Eigen@@@internal@Eigen@@U?$evaluator@V?$CwiseBinaryOp@U?$scalar_product_op@V?$complex@N@std@@V12@@internal@Eigen@@$$CBV?$CwiseNullaryOp@U?$scalar_constant_op@V?$complex@N@std@@@internal@Eigen@@$$CBV?$Matrix@V?$complex@N@std@@$0?0$00$0A@$0?0$00@3@@3@$$CBV?$Block@$$CBV?$Product@V?$Matrix@V?$complex@N@std@@$0?0$0?0$0A@$0?0$0?0@Eigen@@V?$DiagonalWrapper@$$CBV?$Matrix@V?$complex@N@std@@$0?0$00$0A@$0?0$00@Eigen@@@2@$00@Eigen@@$0?0$00$00@3@@Eigen@@@23@U?$add_assign_op@V?$complex@N@std@@V12@@23@$0A@@12@_J1@Z
	??$run@V?$generic_dense_assignment_kernel@U?$evaluator@V?$Block@V?$Matrix@V?$complex@N@std@@$0?0$0?0$0A@$0?0$0?0@Eigen@@$0?0$00$00@Eigen@@@internal@Eigen@@U?$evaluator@V?$CwiseNullaryOp@U?$scalar_constant_op@V?$complex@N@std@@@internal@Eigen@@V?$Matrix@V?$complex@N@std@@$0?0$00$0A@$0?0$00@3@@Eigen@@@23@U?$div_assign_op@V?$complex@N@std@@V12@@23@$0A@@internal@Eigen@@@?$unaligned_dense_assignment_loop@$0A@@internal@Eigen@@SAXAEAV?$generic_dense_assignment_kernel@U?$evaluator@V?$Block@V?$Matrix@V?$complex@N@std@@$0?0$0?0$0A@$0?0$0?0@Eigen@@$0?0$00$00@Eigen@@@internal@Eigen@@U?$evaluator@V?$CwiseNullaryOp@U?$scalar_constant_op@V?$complex@N@std@@@internal@Eigen@@V?$Matrix@V?$complex@N@std@@$0?0$00$0A@$0?0$00@3@@Eigen@@@23@U?$div_assign_op@V?$complex@N@std@@V12@@23@$0A@@12@_J1@Z
	??$run@V?$generic_dense_assignment_kernel@U?$evaluator@V?$Map@V?$Array@N$0?0$00$0A@$0?0$00@Eigen@@$0A@V?$Stride@$0A@$0A@@2@@Eigen@@@internal@Eigen@@U?$evaluator@V?$CwiseBinaryOp@U?$scalar_product_op@NN@internal@Eigen@@$$CBV?$Matrix@N$0?0$00$0A@$0?0$00@3@$$CBV43@@Eigen@@@23@U?$assign_op@NN@23@$0A@@internal@Eigen@@@?$unaligned_dense_assignment_loop@$0A@@internal@Eigen@@SAXAEAV?$generic_dense_assignment_kernel@U?$evaluator@V?$Map@V?$Array@N$0?0$00$0A@$0?0$00@Eigen@@$0A@V?$Stride@$0A@$0A@@2@@Eigen@@@internal@Eigen@@U?$evaluator@V?$CwiseBinaryOp@U?$scalar_product_op@NN@internal@Eigen@@$$CBV?$Matrix@N$0?0$00$0A@$0?0$00@3@$$CBV43@@Eigen@@@23@U?$assign_op@NN@23@$0A@@12@_J1@Z
	??$run@V?$generic_dense_assignment_kernel@U?$evaluator@V?$Map@V?$Array@N$0?0$00$0A@$0?0$00@Eigen@@$0A@V?$Stride@$0A@$0A@@2@@Eigen@@@internal@Eigen@@U?$evaluator@V?$CwiseNullaryOp@U?$scalar_constant_op@N@internal@Eigen@@V?$Array@N$0?0$00$0A@$0?0$00@3@@Eigen@@@23@U?$assign_op@NN@23@$0A@@internal@Eigen@@@?$unaligned_dense_assignment_loop@$0A@@internal@Eigen@@SAXAEAV?$generic_dense_assignment_kernel@U?$evaluator@V?$Map@V?$Array@N$0?0$00$0A@$0?0$00@Eigen@@$0A@V?$Stride@$0A@$0A@@2@@Eigen@@@internal@Eigen@@U?$evaluator@V?$CwiseNullaryOp@U?$scalar_constant_op@N@internal@Eigen@@V?$Array@N$0?0$00$0A@$0?0$00@3@@Eigen@@@23@U?$assign_op@NN@23@$0A@@12@_J1@Z
	??$run@V?$generic_dense_assignment_kernel@U?$evaluator@V?$Map@V?$Matrix@N$00$0?0$00$00$0?0@Eigen@@$0A@V?$Stride@$0A@$0A@@2@@Eigen@@@internal@Eigen@@U?$evaluator@V?$CwiseNullaryOp@U?$scalar_constant_op@N@internal@Eigen@@V?$Matrix@N$00$0?0$00$00$0?0@3@@Eigen@@@23@U?$assign_op@NN@23@$0A@@internal@Eigen@@@?$unaligned_dense_assignment_loop@$0A@@internal@Eigen@@SAXAEAV?$generic_dense_assignment_kernel@U?$evaluator@V?$Map@V?$Matrix@N$00$0?0$00$00$0?0@Eigen@@$0A@V?$Stride@$0A@$0A@@2@@Eigen@@@internal@Eigen@@U?$evaluator@V?$CwiseNullaryOp@U?$scalar_constant_op@N@internal@Eigen@@V?$Matrix@N$00$0?0$00$00$0?0@3@@Eigen@@@23@U?$assign_op@NN@23@$0A@@12@_J1@Z
	??$run@V?$generic_dense_assignment_kernel@U?$evaluator@V?$Map@V?$Matrix@N$0?0$00$0A@$02$00@Eigen@@$0A@V?$Stride@$0A@$0A@@2@@Eigen@@@internal@Eigen@@U?$evaluator@V?$Block@V?$Block@V?$Matrix@N$02$02$0A@$02$02@Eigen@@$0?0$0?0$0A@@Eigen@@$0?0$00$00@Eigen@@@23@U?$add_assign_op@NN@23@$0A@@internal@Eigen@@@?$unaligned_dense_assignment_loop@$0A@@internal@Eigen@@SAXAEAV?$generic_dense_assignment_kernel@U?$evaluator@V?$Map@V?$Matrix@N$0?0$00$0A@$02$00@Eigen@@$0A@V?$Stride@$0A@$0A@@2@@Eigen@@@internal@Eigen@@U?$evaluator@V?$Block@V?$Block@V?$Matrix@N$02$02$0A@$02$02@Eigen@@$0?0$0?0$0A@@Eigen@@$0?0$00$00@Eigen@@@23@U?$add_assign_op@NN@23@$0A@@12@_J1@Z
	??$run@V?$generic_dense_assignment_kernel@U?$evaluator@V?$Map@V?$Matrix@N$0?0$00$0A@$02$00@Eigen@@$0A@V?$Stride@$0A@$0A@@2@@Eigen@@@internal@Eigen@@U?$evaluator@V?$Product@V?$Block@V?$Block@V?$Matrix@N$02$02$0A@$02$02@Eigen@@$0?0$0?0$0A@@Eigen@@$0?0$0?0$0A@@Eigen@@V?$Block@$$CBV?$Matrix@N$02$01$0A@$02$01@Eigen@@$0?0$00$0A@@2@$00@Eigen@@@23@U?$assign_op@NN@23@$0A@@internal@Eigen@@@?$unaligned_dense_assignment_loop@$0A@@internal@Eigen@@SAXAEAV?$generic_dense_assignment_kernel@U?$evaluator@V?$Map@V?$Matrix@N$0?0$00$0A@$02$00@Eigen@@$0A@V?$Stride@$0A@$0A@@2@@Eigen@@@internal@Eigen@@U?$evaluator@V?$Product@V?$Block@V?$Block@V?$Matrix@N$02$02$0A@$02$02@Eigen@@$0?0$0?0$0A@@Eigen@@$0?0$0?0$0A@@Eigen@@V?$Block@$$CBV?$Matrix@N$02$01$0A@$02$01@Eigen@@$0?0$00$0A@@2@$00@Eigen@@@23@U?$assign_op@NN@23@$0A@@12@_J1@Z
	??$run@V?$generic_dense_assignment_kernel@U?$evaluator@V?$Map@V?$Matrix@N$0?0$00$0A@$0?0$00@Eigen@@$0A@V?$Stride@$0A@$0A@@2@@Eigen@@@internal@Eigen@@U?$evaluator@V?$Block@V?$Block@V?$Matrix@N$0?0$0?0$0A@$0?0$0?0@Eigen@@$0?0$0?0$00@Eigen@@$0?0$00$00@Eigen@@@23@U?$add_assign_op@NN@23@$0A@@internal@Eigen@@@?$unaligned_dense_assignment_loop@$0A@@internal@Eigen@@SAXAEAV?$generic_dense_assignment_kernel@U?$evaluator@V?$Map@V?$Matrix@N$0?0$00$0A@$0?0$00@Eigen@@$0A@V?$Stride@$0A@$0A@@2@@Eigen@@@internal@Eigen@@U?$evaluator@V?$Block@V?$Block@V?$Matrix@N$0?0$0?0$0A@$0?0$0?0@Eigen@@$0?0$0?0$00@Eigen@@$0?0$00$00@Eigen@@@23@U?$add_assign_op@NN@23@$0A@@12@_J1@Z
	??$run@V?$generic_dense_assignment_kernel@U?$evaluator@V?$Map@V?$Matrix@N$0?0$00$0A@$0?0$00@Eigen@@$0A@V?$Stride@$0A@$0A@@2@@Eigen@@@internal@Eigen@@U?$evaluator@V?$Block@V?$Block@V?$Matrix@N$0?0$0?0$0A@$0?0$0?0@Eigen@@$0?0$0?0$0A@@Eigen@@$0?0$00$00@Eigen@@@23@U?$add_assign_op@NN@23@$0A@@internal@Eigen@@@?$unaligned_dense_assignment_loop@$0A@@internal@Eigen@@SAXAEAV?$generic_dense_assignment_kernel@U?$evaluator@V?$Map@V?$Matrix@N$0?0$00$0A@$0?0$00@Eigen@@$0A@V?$Stride@$0A@$0A@@2@@Eigen@@@internal@Eigen@@U?$evaluator@V?$Block@V?$Block@V?$Matrix@N$0?0$0?0$0A@$0?0$0?0@Eigen@@$0?0$0?0$0A@@Eigen@@$0?0$00$00@Eigen@@@23@U?$add_assign_op@NN@23@$0A@@12@_J1@Z
	??$run@V?$generic_dense_assignment_kernel@U?$evaluator@V?$Map@V?$Matrix@N$0?0$00$0A@$0?0$00@Eigen@@$0A@V?$Stride@$0A@$0A@@2@@Eigen@@@internal@Eigen@@U?$evaluator@V?$CwiseNullaryOp@U?$scalar_constant_op@N@internal@Eigen@@V?$Matrix@N$0?0$00$0A@$0?0$00@3@@Eigen@@@23@U?$assign_op@NN@23@$0A@@internal@Eigen@@@?$unaligned_dense_assignment_loop@$0A@@internal@Eigen@@SAXAEAV?$generic_dense_assignment_kernel@U?$evaluator@V?$Map@V?$Matrix@N$0?0$00$0A@$0?0$00@Eigen@@$0A@V?$Stride@$0A@$0A@@2@@Eigen@@@internal@Eigen@@U?$evaluator@V?$CwiseNullaryOp@U?$scalar_constant_op@N@internal@Eigen@@V?$Matrix@N$0?0$00$0A@$0?0$00@3@@Eigen@@@23@U?$assign_op@NN@23@$0A@@12@_J1@Z
	??$run@V?$generic_dense_assignment_kernel@U?$evaluator@V?$Map@V?$Matrix@N$0?0$00$0A@$0?0$00@Eigen@@$0A@V?$Stride@$0A@$0A@@2@@Eigen@@@internal@Eigen@@U?$evaluator@V?$Product@V?$Block@V?$Block@V?$Matrix@N$0?0$0?0$0A@$0?0$0?0@Eigen@@$0?0$0?0$0A@@Eigen@@$0?0$00$0A@@Eigen@@V?$Matrix@N$00$00$0A@$00$00@2@$00@Eigen@@@23@U?$assign_op@NN@23@$0A@@internal@Eigen@@@?$unaligned_dense_assignment_loop@$0A@@internal@Eigen@@SAXAEAV?$generic_dense_assignment_kernel@U?$evaluator@V?$Map@V?$Matrix@N$0?0$00$0A@$0?0$00@Eigen@@$0A@V?$Stride@$0A@$0A@@2@@Eigen@@@internal@Eigen@@U?$evaluator@V?$Product@V?$Block@V?$Block@V?$Matrix@N$0?0$0?0$0A@$0?0$0?0@Eigen@@$0?0$0?0$0A@@Eigen@@$0?0$00$0A@@Eigen@@V?$Matrix@N$00$00$0A@$00$00@2@$00@Eigen@@@23@U?$assign_op@NN@23@$0A@@12@_J1@Z
	??$run@V?$generic_dense_assignment_kernel@U?$evaluator@V?$Map@V?$Matrix@N$0?0$00$0A@$0?0$00@Eigen@@$0A@V?$Stride@$0A@$0A@@2@@Eigen@@@internal@Eigen@@U?$evaluator@V?$Product@V?$Block@V?$Block@V?$Matrix@N$0?0$0?0$0A@$0?0$0?0@Eigen@@$0?0$0?0$0A@@Eigen@@$0?0$01$0A@@Eigen@@V?$Matrix@N$01$00$0A@$01$00@2@$00@Eigen@@@23@U?$assign_op@NN@23@$0A@@internal@Eigen@@@?$unaligned_dense_assignment_loop@$0A@@internal@Eigen@@SAXAEAV?$generic_dense_assignment_kernel@U?$evaluator@V?$Map@V?$Matrix@N$0?0$00$0A@$0?0$00@Eigen@@$0A@V?$Stride@$0A@$0A@@2@@Eigen@@@internal@Eigen@@U?$evaluator@V?$Product@V?$Block@V?$Block@V?$Matrix@N$0?0$0?0$0A@$0?0$0?0@Eigen@@$0?0$0?0$0A@@Eigen@@$0?0$01$0A@@Eigen@@V?$Matrix@N$01$00$0A@$01$00@2@$00@Eigen@@@23@U?$assign_op@NN@23@$0A@@12@_J1@Z
	??$run@V?$generic_dense_assignment_kernel@U?$evaluator@V?$Map@V?$Matrix@N$0?0$00$0A@$0?0$00@Eigen@@$0BA@V?$Stride@$0A@$0A@@2@@Eigen@@@internal@Eigen@@U?$evaluator@V?$CwiseBinaryOp@U?$scalar_product_op@NN@internal@Eigen@@$$CBV?$CwiseNullaryOp@U?$scalar_constant_op@N@internal@Eigen@@$$CBV?$Matrix@N$0?0$00$0A@$0?0$00@3@@3@$$CBV?$Block@$$CBV?$Matrix@N$0?0$0?0$0A@$0?0$0?0@Eigen@@$0?0$00$0A@@3@@Eigen@@@23@U?$assign_op@NN@23@$0A@@internal@Eigen@@@?$unaligned_dense_assignment_loop@$0A@@internal@Eigen@@SAXAEAV?$generic_dense_assignment_kernel@U?$evaluator@V?$Map@V?$Matrix@N$0?0$00$0A@$0?0$00@Eigen@@$0BA@V?$Stride@$0A@$0A@@2@@Eigen@@@internal@Eigen@@U?$evaluator@V?$CwiseBinaryOp@U?$scalar_product_op@NN@internal@Eigen@@$$CBV?$CwiseNullaryOp@U?$scalar_constant_op@N@internal@Eigen@@$$CBV?$Matrix@N$0?0$00$0A@$0?0$00@3@@3@$$CBV?$Block@$$CBV?$Matrix@N$0?0$0?0$0A@$0?0$0?0@Eigen@@$0?0$00$0A@@3@@Eigen@@@23@U?$assign_op@NN@23@$0A@@12@_J1@Z
	??$run@V?$generic_dense_assignment_kernel@U?$evaluator@V?$Map@V?$Matrix@N$0?0$00$0A@$0?0$00@Eigen@@$0BA@V?$Stride@$0A@$0A@@2@@Eigen@@@internal@Eigen@@U?$evaluator@V?$CwiseBinaryOp@U?$scalar_product_op@NN@internal@Eigen@@$$CBV?$CwiseNullaryOp@U?$scalar_constant_op@N@internal@Eigen@@$$CBV?$Matrix@N$0?0$00$0A@$0?0$00@3@@3@$$CBV?$Block@V?$Block@V?$Matrix@N$0?0$0?0$0A@$0?0$0?0@Eigen@@$0?0$00$00@Eigen@@$0?0$00$0A@@3@@Eigen@@@23@U?$assign_op@NN@23@$0A@@internal@Eigen@@@?$unaligned_dense_assignment_loop@$0A@@internal@Eigen@@SAXAEAV?$generic_dense_assignment_kernel@U?$evaluator@V?$Map@V?$Matrix@N$0?0$00$0A@$0?0$00@Eigen@@$0BA@V?$Stride@$0A@$0A@@2@@Eigen@@@internal@Eigen@@U?$evaluator@V?$CwiseBinaryOp@U?$scalar_product_op@NN@internal@Eigen@@$$CBV?$CwiseNullaryOp@U?$scalar_constant_op@N@internal@Eigen@@$$CBV?$Matrix@N$0?0$00$0A@$0?0$00@3@@3@$$CBV?$Block@V?$Block@V?$Matrix@N$0?0$0?0$0A@$0?0$0?0@Eigen@@$0?0$00$00@Eigen@@$0?0$00$0A@@3@@Eigen@@@23@U?$assign_op@NN@23@$0A@@12@_J1@Z
	??$run@V?$generic_dense_assignment_kernel@U?$evaluator@V?$Map@V?$Matrix@N$0?0$00$0A@$0?0$00@Eigen@@$0BA@V?$Stride@$0A@$0A@@2@@Eigen@@@internal@Eigen@@U?$evaluator@V?$CwiseBinaryOp@U?$scalar_product_op@NN@internal@Eigen@@$$CBV?$CwiseNullaryOp@U?$scalar_constant_op@N@internal@Eigen@@$$CBV?$Matrix@N$0?0$00$0A@$0?0$00@3@@3@$$CBV?$Map@V?$Matrix@N$0?0$00$0A@$0?0$00@Eigen@@$0A@V?$Stride@$0A@$0A@@2@@3@@Eigen@@@23@U?$assign_op@NN@23@$0A@@internal@Eigen@@@?$unaligned_dense_assignment_loop@$0A@@internal@Eigen@@SAXAEAV?$generic_dense_assignment_kernel@U?$evaluator@V?$Map@V?$Matrix@N$0?0$00$0A@$0?0$00@Eigen@@$0BA@V?$Stride@$0A@$0A@@2@@Eigen@@@internal@Eigen@@U?$evaluator@V?$CwiseBinaryOp@U?$scalar_product_op@NN@internal@Eigen@@$$CBV?$CwiseNullaryOp@U?$scalar_constant_op@N@internal@Eigen@@$$CBV?$Matrix@N$0?0$00$0A@$0?0$00@3@@3@$$CBV?$Map@V?$Matrix@N$0?0$00$0A@$0?0$00@Eigen@@$0A@V?$Stride@$0A@$0A@@2@@3@@Eigen@@@23@U?$assign_op@NN@23@$0A@@12@_J1@Z
	??$run@V?$generic_dense_assignment_kernel@U?$evaluator@V?$Map@V?$Matrix@V?$complex@N@std@@$0?0$00$0A@$0?0$00@Eigen@@$00V?$Stride@$0A@$0A@@2@@Eigen@@@internal@Eigen@@U?$evaluator@V?$CwiseNullaryOp@U?$scalar_constant_op@V?$complex@N@std@@@internal@Eigen@@V?$Matrix@V?$complex@N@std@@$0?0$00$0A@$0?0$00@3@@Eigen@@@23@U?$assign_op@V?$complex@N@std@@V12@@23@$0A@@internal@Eigen@@@?$unaligned_dense_assignment_loop@$0A@@internal@Eigen@@SAXAEAV?$generic_dense_assignment_kernel@U?$evaluator@V?$Map@V?$Matrix@V?$complex@N@std@@$0?0$00$0A@$0?0$00@Eigen@@$00V?$Stride@$0A@$0A@@2@@Eigen@@@internal@Eigen@@U?$evaluator@V?$CwiseNullaryOp@U?$scalar_constant_op@V?$complex@N@std@@@internal@Eigen@@V?$Matrix@V?$complex@N@std@@$0?0$00$0A@$0?0$00@3@@Eigen@@@23@U?$assign_op@V?$complex@N@std@@V12@@23@$0A@@12@_J1@Z
	??$run@V?$generic_dense_assignment_kernel@U?$evaluator@V?$Matrix@N$0?0$00$0A@$02$00@Eigen@@@internal@Eigen@@U?$evaluator@V?$CwiseBinaryOp@U?$scalar_product_op@NN@internal@Eigen@@$$CBV?$CwiseNullaryOp@U?$scalar_constant_op@N@internal@Eigen@@$$CBV?$Matrix@N$0?0$00$0A@$02$00@3@@3@$$CBV?$Block@$$CBV?$Matrix@N$02$01$0A@$02$01@Eigen@@$0?0$00$0A@@3@@Eigen@@@23@U?$assign_op@NN@23@$0A@@internal@Eigen@@@?$unaligned_dense_assignment_loop@$0A@@internal@Eigen@@SAXAEAV?$generic_dense_assignment_kernel@U?$evaluator@V?$Matrix@N$0?0$00$0A@$02$00@Eigen@@@internal@Eigen@@U?$evaluator@V?$CwiseBinaryOp@U?$scalar_product_op@NN@internal@Eigen@@$$CBV?$CwiseNullaryOp@U?$scalar_constant_op@N@internal@Eigen@@$$CBV?$Matrix@N$0?0$00$0A@$02$00@3@@3@$$CBV?$Block@$$CBV?$Matrix@N$02$01$0A@$02$01@Eigen@@$0?0$00$0A@@3@@Eigen@@@23@U?$assign_op@NN@23@$0A@@12@_J1@Z
	??$run@V?$generic_dense_assignment_kernel@U?$evaluator@V?$Matrix@N$0?0$00$0A@$02$00@Eigen@@@internal@Eigen@@U?$evaluator@V?$CwiseBinaryOp@U?$scalar_product_op@NN@internal@Eigen@@$$CBV?$CwiseNullaryOp@U?$scalar_constant_op@N@internal@Eigen@@$$CBV?$Matrix@N$0?0$00$0A@$02$00@3@@3@$$CBV?$Block@V?$Block@V?$Matrix@N$02$01$0A@$02$01@Eigen@@$02$00$00@Eigen@@$0?0$00$0A@@3@@Eigen@@@23@U?$assign_op@NN@23@$0A@@internal@Eigen@@@?$unaligned_dense_assignment_loop@$0A@@internal@Eigen@@SAXAEAV?$generic_dense_assignment_kernel@U?$evaluator@V?$Matrix@N$0?0$00$0A@$02$00@Eigen@@@internal@Eigen@@U?$evaluator@V?$CwiseBinaryOp@U?$scalar_product_op@NN@internal@Eigen@@$$CBV?$CwiseNullaryOp@U?$scalar_constant_op@N@internal@Eigen@@$$CBV?$Matrix@N$0?0$00$0A@$02$00@3@@3@$$CBV?$Block@V?$Block@V?$Matrix@N$02$01$0A@$02$01@Eigen@@$02$00$00@Eigen@@$0?0$00$0A@@3@@Eigen@@@23@U?$assign_op@NN@23@$0A@@12@_J1@Z
	??$run@V?$generic_dense_assignment_kernel@U?$evaluator@V?$Matrix@N$0?0$00$0A@$02$00@Eigen@@@internal@Eigen@@U?$evaluator@V?$CwiseBinaryOp@U?$scalar_product_op@NN@internal@Eigen@@$$CBV?$CwiseNullaryOp@U?$scalar_constant_op@N@internal@Eigen@@$$CBV?$Matrix@N$0?0$00$0A@$02$00@3@@3@$$CBV?$Map@V?$Matrix@N$0?0$00$0A@$02$00@Eigen@@$0A@V?$Stride@$0A@$0A@@2@@3@@Eigen@@@23@U?$assign_op@NN@23@$0A@@internal@Eigen@@@?$unaligned_dense_assignment_loop@$0A@@internal@Eigen@@SAXAEAV?$generic_dense_assignment_kernel@U?$evaluator@V?$Matrix@N$0?0$00$0A@$02$00@Eigen@@@internal@Eigen@@U?$evaluator@V?$CwiseBinaryOp@U?$scalar_product_op@NN@internal@Eigen@@$$CBV?$CwiseNullaryOp@U?$scalar_constant_op@N@internal@Eigen@@$$CBV?$Matrix@N$0?0$00$0A@$02$00@3@@3@$$CBV?$Map@V?$Matrix@N$0?0$00$0A@$02$00@Eigen@@$0A@V?$Stride@$0A@$0A@@2@@3@@Eigen@@@23@U?$assign_op@NN@23@$0A@@12@_J1@Z
	??$run@V?$generic_dense_assignment_kernel@U?$evaluator@V?$Matrix@N$0?0$00$0A@$0?0$00@Eigen@@@internal@Eigen@@U123@U?$assign_op@NN@23@$0A@@internal@Eigen@@@?$unaligned_dense_assignment_loop@$0A@@internal@Eigen@@SAXAEAV?$generic_dense_assignment_kernel@U?$evaluator@V?$Matrix@N$0?0$00$0A@$0?0$00@Eigen@@@internal@Eigen@@U123@U?$assign_op@NN@23@$0A@@12@_J1@Z
	??$run@V?$generic_dense_assignment_kernel@U?$evaluator@V?$Matrix@N$0?0$00$0A@$0?0$00@Eigen@@@internal@Eigen@@U?$evaluator@V?$CwiseNullaryOp@U?$scalar_constant_op@N@internal@Eigen@@V?$Matrix@N$0?0$00$0A@$0?0$00@3@@Eigen@@@23@U?$mul_assign_op@NN@23@$0A@@internal@Eigen@@@?$unaligned_dense_assignment_loop@$0A@@internal@Eigen@@SAXAEAV?$generic_dense_assignment_kernel@U?$evaluator@V?$Matrix@N$0?0$00$0A@$0?0$00@Eigen@@@internal@Eigen@@U?$evaluator@V?$CwiseNullaryOp@U?$scalar_constant_op@N@internal@Eigen@@V?$Matrix@N$0?0$00$0A@$0?0$00@3@@Eigen@@@23@U?$mul_assign_op@NN@23@$0A@@12@_J1@Z
	??$run@V?$generic_dense_assignment_kernel@U?$evaluator@V?$Matrix@N$0?0$0?0$0A@$01$02@Eigen@@@internal@Eigen@@U?$evaluator@V?$Matrix@N$0?0$0?0$0A@$0?0$02@Eigen@@@23@U?$assign_op@NN@23@$0A@@internal@Eigen@@@?$unaligned_dense_assignment_loop@$0A@@internal@Eigen@@SAXAEAV?$generic_dense_assignment_kernel@U?$evaluator@V?$Matrix@N$0?0$0?0$0A@$01$02@Eigen@@@internal@Eigen@@U?$evaluator@V?$Matrix@N$0?0$0?0$0A@$0?0$02@Eigen@@@23@U?$assign_op@NN@23@$0A@@12@_J1@Z
	??$run@V?$generic_dense_assignment_kernel@U?$evaluator@V?$Matrix@N$0?0$0?0$0A@$0?0$0?0@Eigen@@@internal@Eigen@@U123@U?$assign_op@NN@23@$0A@@internal@Eigen@@@?$unaligned_dense_assignment_loop@$0A@@internal@Eigen@@SAXAEAV?$generic_dense_assignment_kernel@U?$evaluator@V?$Matrix@N$0?0$0?0$0A@$0?0$0?0@Eigen@@@internal@Eigen@@U123@U?$assign_op@NN@23@$0A@@12@_J1@Z
	??$run@V?$generic_dense_assignment_kernel@U?$evaluator@V?$Matrix@N$0?0$0?0$0A@$0?0$0?0@Eigen@@@internal@Eigen@@U?$evaluator@V?$CwiseBinaryOp@U?$scalar_quotient_op@NN@internal@Eigen@@$$CBV?$Matrix@N$0?0$0?0$0A@$0?0$0?0@3@$$CBV?$CwiseNullaryOp@U?$scalar_constant_op@N@internal@Eigen@@$$CBV?$Matrix@N$0?0$0?0$0A@$0?0$0?0@3@@3@@Eigen@@@23@U?$assign_op@NN@23@$0A@@internal@Eigen@@@?$unaligned_dense_assignment_loop@$0A@@internal@Eigen@@SAXAEAV?$generic_dense_assignment_kernel@U?$evaluator@V?$Matrix@N$0?0$0?0$0A@$0?0$0?0@Eigen@@@internal@Eigen@@U?$evaluator@V?$CwiseBinaryOp@U?$scalar_quotient_op@NN@internal@Eigen@@$$CBV?$Matrix@N$0?0$0?0$0A@$0?0$0?0@3@$$CBV?$CwiseNullaryOp@U?$scalar_constant_op@N@internal@Eigen@@$$CBV?$Matrix@N$0?0$0?0$0A@$0?0$0?0@3@@3@@Eigen@@@23@U?$assign_op@NN@23@$0A@@12@_J1@Z
	??$run@V?$generic_dense_assignment_kernel@U?$evaluator@V?$Matrix@N$0?0$0?0$0A@$0?0$0?0@Eigen@@@internal@Eigen@@U?$evaluator@V?$CwiseNullaryOp@U?$scalar_constant_op@N@internal@Eigen@@V?$Matrix@N$0?0$0?0$0A@$0?0$0?0@3@@Eigen@@@23@U?$mul_assign_op@NN@23@$0A@@internal@Eigen@@@?$unaligned_dense_assignment_loop@$0A@@internal@Eigen@@SAXAEAV?$generic_dense_assignment_kernel@U?$evaluator@V?$Matrix@N$0?0$0?0$0A@$0?0$0?0@Eigen@@@internal@Eigen@@U?$evaluator@V?$CwiseNullaryOp@U?$scalar_constant_op@N@internal@Eigen@@V?$Matrix@N$0?0$0?0$0A@$0?0$0?0@3@@Eigen@@@23@U?$mul_assign_op@NN@23@$0A@@12@_J1@Z
	??$run@V?$generic_dense_assignment_kernel@U?$evaluator@V?$Matrix@V?$complex@N@std@@$0?0$00$0A@$0?0$00@Eigen@@@internal@Eigen@@U123@U?$assign_op@V?$complex@N@std@@V12@@23@$0A@@internal@Eigen@@@?$unaligned_dense_assignment_loop@$0A@@internal@Eigen@@SAXAEAV?$generic_dense_assignment_kernel@U?$evaluator@V?$Matrix@V?$complex@N@std@@$0?0$00$0A@$0?0$00@Eigen@@@internal@Eigen@@U123@U?$assign_op@V?$complex@N@std@@V12@@23@$0A@@12@_J1@Z
	??$run@V?$generic_dense_assignment_kernel@U?$evaluator@V?$Matrix@V?$complex@N@std@@$0?0$00$0A@$0?0$00@Eigen@@@internal@Eigen@@U?$evaluator@V?$CwiseBinaryOp@U?$scalar_product_op@V?$complex@N@std@@V12@@internal@Eigen@@$$CBV?$CwiseNullaryOp@U?$scalar_constant_op@V?$complex@N@std@@@internal@Eigen@@$$CBV?$Matrix@V?$complex@N@std@@$0?0$00$0A@$0?0$00@3@@3@$$CBV?$Map@V?$Matrix@V?$complex@N@std@@$0?0$00$0A@$0?0$00@Eigen@@$00V?$Stride@$0A@$0A@@2@@3@@Eigen@@@23@U?$add_assign_op@V?$complex@N@std@@V12@@23@$0A@@internal@Eigen@@@?$unaligned_dense_assignment_loop@$0A@@internal@Eigen@@SAXAEAV?$generic_dense_assignment_kernel@U?$evaluator@V?$Matrix@V?$complex@N@std@@$0?0$00$0A@$0?0$00@Eigen@@@internal@Eigen@@U?$evaluator@V?$CwiseBinaryOp@U?$scalar_product_op@V?$complex@N@std@@V12@@internal@Eigen@@$$CBV?$CwiseNullaryOp@U?$scalar_constant_op@V?$complex@N@std@@@internal@Eigen@@$$CBV?$Matrix@V?$complex@N@std@@$0?0$00$0A@$0?0$00@3@@3@$$CBV?$Map@V?$Matrix@V?$complex@N@std@@$0?0$00$0A@$0?0$00@Eigen@@$00V?$Stride@$0A@$0A@@2@@3@@Eigen@@@23@U?$add_assign_op@V?$complex@N@std@@V12@@23@$0A@@12@_J1@Z
	??$run@V?$generic_dense_assignment_kernel@U?$evaluator@V?$Matrix@V?$complex@N@std@@$0?0$0?0$0A@$0?0$0?0@Eigen@@@internal@Eigen@@U123@U?$assign_op@V?$complex@N@std@@V12@@23@$0A@@internal@Eigen@@@?$unaligned_dense_assignment_loop@$0A@@internal@Eigen@@SAXAEAV?$generic_dense_assignment_kernel@U?$evaluator@V?$Matrix@V?$complex@N@std@@$0?0$0?0$0A@$0?0$0?0@Eigen@@@internal@Eigen@@U123@U?$assign_op@V?$complex@N@std@@V12@@23@$0A@@12@_J1@Z
	??$scaleAndAddTo@V?$Block@V?$Block@V?$Matrix@N$0?0$0?0$00$0?0$0?0@Eigen@@$00$0?0$00@Eigen@@$00$0?0$0A@@Eigen@@@?$generic_product_impl@V?$CwiseBinaryOp@U?$scalar_product_op@NN@internal@Eigen@@$$CBV?$CwiseNullaryOp@U?$scalar_constant_op@N@internal@Eigen@@$$CBV?$Matrix@N$00$0?0$00$00$02@3@@3@$$CBV?$Transpose@$$CBV?$Block@$$CBV?$Block@$$CBV?$Block@V?$Matrix@N$02$01$0A@$02$01@Eigen@@$0?0$0?0$0A@@Eigen@@$0?0$00$00@Eigen@@$0?0$00$0A@@Eigen@@@3@@Eigen@@V?$TriangularView@$$CBV?$Block@$$CBV?$Block@V?$Matrix@N$02$01$0A@$02$01@Eigen@@$0?0$0?0$0A@@Eigen@@$0?0$0?0$0A@@Eigen@@$04@2@UDenseShape@2@UTriangularShape@2@$02@internal@Eigen@@SAXAEAV?$Block@V?$Block@V?$Matrix@N$0?0$0?0$00$0?0$0?0@Eigen@@$00$0?0$00@Eigen@@$00$0?0$0A@@2@AEBV?$CwiseBinaryOp@U?$scalar_product_op@NN@internal@Eigen@@$$CBV?$CwiseNullaryOp@U?$scalar_constant_op@N@internal@Eigen@@$$CBV?$Matrix@N$00$0?0$00$00$02@3@@3@$$CBV?$Transpose@$$CBV?$Block@$$CBV?$Block@$$CBV?$Block@V?$Matrix@N$02$01$0A@$02$01@Eigen@@$0?0$0?0$0A@@Eigen@@$0?0$00$00@Eigen@@$0?0$00$0A@@Eigen@@@3@@2@AEBV?$TriangularView@$$CBV?$Block@$$CBV?$Block@V?$Matrix@N$02$01$0A@$02$01@Eigen@@$0?0$0?0$0A@@Eigen@@$0?0$0?0$0A@@Eigen@@$04@2@AEBN@Z
	??$scaleAndAddTo@V?$Block@V?$Block@V?$Matrix@N$0?0$0?0$00$0?0$0?0@Eigen@@$00$0?0$00@Eigen@@$00$0?0$0A@@Eigen@@@?$generic_product_impl@V?$CwiseBinaryOp@U?$scalar_product_op@NN@internal@Eigen@@$$CBV?$CwiseNullaryOp@U?$scalar_constant_op@N@internal@Eigen@@$$CBV?$Matrix@N$00$0?0$00$00$0?0@3@@3@$$CBV?$Transpose@$$CBV?$Block@$$CBV?$Block@$$CBV?$Block@V?$Matrix@N$0?0$0?0$0A@$0?0$0?0@Eigen@@$0?0$0?0$0A@@Eigen@@$0?0$00$00@Eigen@@$0?0$00$0A@@Eigen@@@3@@Eigen@@V?$TriangularView@$$CBV?$Block@$$CBV?$Block@V?$Matrix@N$0?0$0?0$0A@$0?0$0?0@Eigen@@$0?0$0?0$0A@@Eigen@@$0?0$0?0$0A@@Eigen@@$04@2@UDenseShape@2@UTriangularShape@2@$06@internal@Eigen@@SAXAEAV?$Block@V?$Block@V?$Matrix@N$0?0$0?0$00$0?0$0?0@Eigen@@$00$0?0$00@Eigen@@$00$0?0$0A@@2@AEBV?$CwiseBinaryOp@U?$scalar_product_op@NN@internal@Eigen@@$$CBV?$CwiseNullaryOp@U?$scalar_constant_op@N@internal@Eigen@@$$CBV?$Matrix@N$00$0?0$00$00$0?0@3@@3@$$CBV?$Transpose@$$CBV?$Block@$$CBV?$Block@$$CBV?$Block@V?$Matrix@N$0?0$0?0$0A@$0?0$0?0@Eigen@@$0?0$0?0$0A@@Eigen@@$0?0$00$00@Eigen@@$0?0$00$0A@@Eigen@@@3@@2@AEBV?$TriangularView@$$CBV?$Block@$$CBV?$Block@V?$Matrix@N$0?0$0?0$0A@$0?0$0?0@Eigen@@$0?0$0?0$0A@@Eigen@@$0?0$0?0$0A@@Eigen@@$04@2@AEBN@Z
	??$scaleAndAddTo@V?$Matrix@V?$complex@N@std@@$0?0$0?0$0A@$0?0$0?0@Eigen@@@?$generic_product_impl@V?$Product@V?$Matrix@V?$complex@N@std@@$0?0$0?0$0A@$0?0$0?0@Eigen@@V?$DiagonalWrapper@$$CBV?$Matrix@V?$complex@N@std@@$0?0$00$0A@$0?0$00@Eigen@@@2@$00@Eigen@@V?$Matrix@V?$complex@N@std@@$0?0$0?0$0A@$0?0$0?0@2@UDenseShape@2@U42@$07@internal@Eigen@@SAXAEAV?$Matrix@V?$complex@N@std@@$0?0$0?0$0A@$0?0$0?0@2@AEBV?$Product@V?$Matrix@V?$complex@N@std@@$0?0$0?0$0A@$0?0$0?0@Eigen@@V?$DiagonalWrapper@$$CBV?$Matrix@V?$complex@N@std@@$0?0$00$0A@$0?0$00@Eigen@@@2@$00@2@AEBV32@AEBV?$complex@N@std@@@Z
	??$scaleAndAddTo@V?$Ref@V?$Matrix@V?$complex@N@std@@$0?0$0?0$0A@$0?0$0?0@Eigen@@$0A@V?$OuterStride@$0?0@2@@Eigen@@@?$generic_product_impl@V?$Ref@V?$Matrix@V?$complex@N@std@@$0?0$0?0$0A@$0?0$0?0@Eigen@@$0A@V?$OuterStride@$0?0@2@@Eigen@@V12@UDenseShape@2@U32@$07@internal@Eigen@@SAXAEAV?$Ref@V?$Matrix@V?$complex@N@std@@$0?0$0?0$0A@$0?0$0?0@Eigen@@$0A@V?$OuterStride@$0?0@2@@2@AEBV32@1AEBV?$complex@N@std@@@Z
	??$setFromTwoVectors@V?$Matrix@N$02$00$0A@$02$00@Eigen@@V12@@?$QuaternionBase@V?$Quaternion@N$0A@@Eigen@@@Eigen@@QEAAAEAV?$Quaternion@N$0A@@1@AEBV?$MatrixBase@V?$Matrix@N$02$00$0A@$02$00@Eigen@@@1@0@Z
	??$smart_copy@H@internal@Eigen@@YAXPEBH0PEAH@Z
	??$smart_copy@N@internal@Eigen@@YAXPEBN0PEAN@Z
	??$smart_copy@V?$complex@N@std@@@internal@Eigen@@YAXPEBV?$complex@N@std@@0PEAV23@@Z
	??$smart_memmove@H@internal@Eigen@@YAXPEBH0PEAH@Z
	??$smart_memmove@N@internal@Eigen@@YAXPEBN0PEAN@Z
	??$solveInPlace@$00V?$Matrix@V?$complex@N@std@@$0?0$0?0$0A@$0?0$0?0@Eigen@@@?$TriangularViewImpl@$$CBV?$Matrix@V?$complex@N@std@@$0?0$0?0$0A@$0?0$0?0@Eigen@@$01UDense@2@@Eigen@@QEBAXAEBV?$MatrixBase@V?$Matrix@V?$complex@N@std@@$0?0$0?0$0A@$0?0$0?0@Eigen@@@1@@Z
	??$solveInPlace@$00V?$Matrix@V?$complex@N@std@@$0?0$0?0$0A@$0?0$0?0@Eigen@@@?$TriangularViewImpl@$$CBV?$Matrix@V?$complex@N@std@@$0?0$0?0$0A@$0?0$0?0@Eigen@@$04UDense@2@@Eigen@@QEBAXAEBV?$MatrixBase@V?$Matrix@V?$complex@N@std@@$0?0$0?0$0A@$0?0$0?0@Eigen@@@1@@Z
	??$solveInPlace@$00V?$Ref@V?$Matrix@V?$complex@N@std@@$0?0$0?0$0A@$0?0$0?0@Eigen@@$0A@V?$OuterStride@$0?0@2@@Eigen@@@?$TriangularViewImpl@V?$Ref@V?$Matrix@V?$complex@N@std@@$0?0$0?0$0A@$0?0$0?0@Eigen@@$0A@V?$OuterStride@$0?0@2@@Eigen@@$04UDense@2@@Eigen@@QEBAXAEBV?$MatrixBase@V?$Ref@V?$Matrix@V?$complex@N@std@@$0?0$0?0$0A@$0?0$0?0@Eigen@@$0A@V?$OuterStride@$0?0@2@@Eigen@@@1@@Z
	??$subTo@V?$Matrix@V?$complex@N@std@@$0?0$0?0$0A@$0?0$0?0@Eigen@@@?$generic_product_impl@V?$Product@V?$Matrix@V?$complex@N@std@@$0?0$0?0$0A@$0?0$0?0@Eigen@@V?$DiagonalWrapper@$$CBV?$Matrix@V?$complex@N@std@@$0?0$00$0A@$0?0$00@Eigen@@@2@$00@Eigen@@V?$Matrix@V?$complex@N@std@@$0?0$0?0$0A@$0?0$0?0@2@UDenseShape@2@U42@$07@internal@Eigen@@SAXAEAV?$Matrix@V?$complex@N@std@@$0?0$0?0$0A@$0?0$0?0@2@AEBV?$Product@V?$Matrix@V?$complex@N@std@@$0?0$0?0$0A@$0?0$0?0@Eigen@@V?$DiagonalWrapper@$$CBV?$Matrix@V?$complex@N@std@@$0?0$00$0A@$0?0$00@Eigen@@@2@$00@2@AEBV32@@Z
	??$subTo@V?$Ref@V?$Matrix@V?$complex@N@std@@$0?0$0?0$0A@$0?0$0?0@Eigen@@$0A@V?$OuterStride@$0?0@2@@Eigen@@@?$generic_product_impl@V?$Ref@V?$Matrix@V?$complex@N@std@@$0?0$0?0$0A@$0?0$0?0@Eigen@@$0A@V?$OuterStride@$0?0@2@@Eigen@@V12@UDenseShape@2@U32@$07@internal@Eigen@@SAXAEAV?$Ref@V?$Matrix@V?$complex@N@std@@$0?0$0?0$0A@$0?0$0?0@Eigen@@$0A@V?$OuterStride@$0?0@2@@2@AEBV32@1@Z
	??$triangularView@$00@?$MatrixBase@V?$Block@V?$Matrix@N$0?0$0?0$0A@$0?0$0?0@Eigen@@$0?0$0?0$0A@@Eigen@@@Eigen@@QEAA?AV?$TriangularView@V?$Block@V?$Matrix@N$0?0$0?0$0A@$0?0$0?0@Eigen@@$0?0$0?0$0A@@Eigen@@$00@1@XZ
	??$triangularView@$01@?$MatrixBase@V?$Block@$$CBV?$Matrix@N$02$01$0A@$02$01@Eigen@@$0?0$0?0$0A@@Eigen@@@Eigen@@QEBA?BV?$TriangularView@$$CBV?$Block@$$CBV?$Matrix@N$02$01$0A@$02$01@Eigen@@$0?0$0?0$0A@@Eigen@@$01@1@XZ
	??$triangularView@$01@?$MatrixBase@V?$Matrix@N$0?0$0?0$00$0?0$0?0@Eigen@@@Eigen@@QEAA?AV?$TriangularView@V?$Matrix@N$0?0$0?0$00$0?0$0?0@Eigen@@$01@1@XZ
	??$triangularView@$01@?$MatrixBase@V?$Matrix@V?$complex@N@std@@$0?0$0?0$0A@$0?0$0?0@Eigen@@@Eigen@@QEBA?BV?$TriangularView@$$CBV?$Matrix@V?$complex@N@std@@$0?0$0?0$0A@$0?0$0?0@Eigen@@$01@1@XZ
	??$triangularView@$04@?$MatrixBase@V?$Block@$$CBV?$Block@V?$Matrix@N$02$01$0A@$02$01@Eigen@@$0?0$0?0$0A@@Eigen@@$0?0$0?0$0A@@Eigen@@@Eigen@@QEBA?BV?$TriangularView@$$CBV?$Block@$$CBV?$Block@V?$Matrix@N$02$01$0A@$02$01@Eigen@@$0?0$0?0$0A@@Eigen@@$0?0$0?0$0A@@Eigen@@$04@1@XZ
	??$triangularView@$04@?$MatrixBase@V?$Block@$$CBV?$Block@V?$Matrix@N$0?0$0?0$0A@$0?0$0?0@Eigen@@$0?0$0?0$0A@@Eigen@@$0?0$0?0$0A@@Eigen@@@Eigen@@QEBA?BV?$TriangularView@$$CBV?$Block@$$CBV?$Block@V?$Matrix@N$0?0$0?0$0A@$0?0$0?0@Eigen@@$0?0$0?0$0A@@Eigen@@$0?0$0?0$0A@@Eigen@@$04@1@XZ
	??$triangularView@$04@?$MatrixBase@V?$Matrix@V?$complex@N@std@@$0?0$0?0$0A@$0?0$0?0@Eigen@@@Eigen@@QEBA?BV?$TriangularView@$$CBV?$Matrix@V?$complex@N@std@@$0?0$0?0$0A@$0?0$0?0@Eigen@@$04@1@XZ
	??$triangularView@$04@?$MatrixBase@V?$Ref@V?$Matrix@V?$complex@N@std@@$0?0$0?0$0A@$0?0$0?0@Eigen@@$0A@V?$OuterStride@$0?0@2@@Eigen@@@Eigen@@QEAA?AV?$TriangularView@V?$Ref@V?$Matrix@V?$complex@N@std@@$0?0$0?0$0A@$0?0$0?0@Eigen@@$0A@V?$OuterStride@$0?0@2@@Eigen@@$04@1@XZ
	??$triangularView@$09@?$MatrixBase@V?$Matrix@N$02$02$0A@$02$02@Eigen@@@Eigen@@QEAA?AV?$TriangularView@V?$Matrix@N$02$02$0A@$02$02@Eigen@@$09@1@XZ
	??$triangularView@$09@?$MatrixBase@V?$Matrix@N$0?0$0?0$0A@$0?0$0?0@Eigen@@@Eigen@@QEAA?AV?$TriangularView@V?$Matrix@N$0?0$0?0$0A@$0?0$0?0@Eigen@@$09@1@XZ
	??$uninitialized_fill@PEAV?$_List_unchecked_const_iterator@V?$_List_val@U?$_List_simple_types@U?$pair@HH@std@@@std@@@std@@U_Iterator_base0@2@@std@@V12@@std@@YAXQEAV?$_List_unchecked_const_iterator@V?$_List_val@U?$_List_simple_types@U?$pair@HH@std@@@std@@@std@@U_Iterator_base0@2@@0@0AEBV10@@Z
	??$uninitialized_fill@PEAV?$_List_unchecked_iterator@V?$_List_val@U?$_List_simple_types@U?$pair@QEBVNode@pwd@@H@std@@@std@@@std@@@std@@V12@@std@@YAXQEAV?$_List_unchecked_iterator@V?$_List_val@U?$_List_simple_types@U?$pair@QEBVNode@pwd@@H@std@@@std@@@std@@@0@0AEBV10@@Z
	??$uninitialized_fill@PEAV?$_List_unchecked_iterator@V?$_List_val@U?$_List_simple_types@U?$pair@QEBVNode@pwd@@_N@std@@@std@@@std@@@std@@V12@@std@@YAXQEAV?$_List_unchecked_iterator@V?$_List_val@U?$_List_simple_types@U?$pair@QEBVNode@pwd@@_N@std@@@std@@@std@@@0@0AEBV10@@Z
	??$use_facet@V?$codecvt@DDU_Mbstatet@@@std@@@std@@YAAEBV?$codecvt@DDU_Mbstatet@@@0@AEBVlocale@0@@Z
	??$visit@U?$max_coeff_visitor@V?$Block@V?$Matrix@N$00$01$00$00$01@Eigen@@$00$0?0$0A@@Eigen@@$0A@@internal@Eigen@@@?$DenseBase@V?$Block@V?$Matrix@N$00$01$00$00$01@Eigen@@$00$0?0$0A@@Eigen@@@Eigen@@QEBAXAEAU?$max_coeff_visitor@V?$Block@V?$Matrix@N$00$01$00$00$01@Eigen@@$00$0?0$0A@@Eigen@@$0A@@internal@1@@Z
	??$visit@U?$max_coeff_visitor@V?$Block@V?$Matrix@N$01$00$0A@$01$00@Eigen@@$0?0$00$0A@@Eigen@@$0A@@internal@Eigen@@@?$DenseBase@V?$Block@V?$Matrix@N$01$00$0A@$01$00@Eigen@@$0?0$00$0A@@Eigen@@@Eigen@@QEBAXAEAU?$max_coeff_visitor@V?$Block@V?$Matrix@N$01$00$0A@$01$00@Eigen@@$0?0$00$0A@@Eigen@@$0A@@internal@1@@Z
	??$visit@U?$max_coeff_visitor@V?$CwiseUnaryOp@U?$scalar_score_coeff_op@V?$complex@N@std@@@internal@Eigen@@$$CBV?$Block@V?$Block@V?$Ref@V?$Matrix@V?$complex@N@std@@$0?0$0?0$0A@$0?0$0?0@Eigen@@$0A@V?$OuterStride@$0?0@2@@Eigen@@$0?0$00$00@Eigen@@$0?0$00$0A@@3@@Eigen@@$0A@@internal@Eigen@@@?$DenseBase@V?$CwiseUnaryOp@U?$scalar_score_coeff_op@V?$complex@N@std@@@internal@Eigen@@$$CBV?$Block@V?$Block@V?$Ref@V?$Matrix@V?$complex@N@std@@$0?0$0?0$0A@$0?0$0?0@Eigen@@$0A@V?$OuterStride@$0?0@2@@Eigen@@$0?0$00$00@Eigen@@$0?0$00$0A@@3@@Eigen@@@Eigen@@QEBAXAEAU?$max_coeff_visitor@V?$CwiseUnaryOp@U?$scalar_score_coeff_op@V?$complex@N@std@@@internal@Eigen@@$$CBV?$Block@V?$Block@V?$Ref@V?$Matrix@V?$complex@N@std@@$0?0$0?0$0A@$0?0$0?0@Eigen@@$0A@V?$OuterStride@$0?0@2@@Eigen@@$0?0$00$00@Eigen@@$0?0$00$0A@@3@@Eigen@@$0A@@internal@1@@Z
	??0?$EigenSolver@V?$Matrix@N$0?0$0?0$0A@$0?0$0?0@Eigen@@@Eigen@@QEAA@XZ
	??0?$basic_string@DU?$char_traits@D@std@@V?$allocator@D@2@@std@@QEAA@AEBV01@@Z
	??0?$basic_string@DU?$char_traits@D@std@@V?$allocator@D@2@@std@@QEAA@QEBD@Z
	??0?$gemm_blocking_space@$0A@V?$complex@N@std@@V12@$0?0$0?0$0?0$00$0A@@internal@Eigen@@QEAA@_J000_N@Z
	??0AssertFailException@pwd@@QEAA@AEBV01@@Z
	??0AssertFailException@pwd@@QEAA@AEBV?$basic_string@DU?$char_traits@D@std@@V?$allocator@D@2@@std@@0H@Z
	??0BaseException@pwd@@QEAA@AEBV01@@Z
	??0BaseException@pwd@@QEAA@AEBV?$basic_string@DU?$char_traits@D@std@@V?$allocator@D@2@@std@@0H@Z
	??0CacheSizes@internal@Eigen@@QEAA@XZ
	??0Graph@pwd@@QEAA@AEBV?$basic_string@DU?$char_traits@D@std@@V?$allocator@D@2@@std@@@Z
	??0Node@pwd@@AEAA@PEBVGraph@1@AEBV?$Matrix@N$02$00$0A@$02$00@Eigen@@1N_N@Z
	??0NullPointerException@pwd@@QEAA@AEBV01@@Z
	??0NullPointerException@pwd@@QEAA@AEBV?$basic_string@DU?$char_traits@D@std@@V?$allocator@D@2@@std@@0H@Z
	??0Packet1cd@internal@Eigen@@QEAA@XZ
	??0WaterModel@pwd@@QEAA@AEBV01@@Z
	??0WaterModel@pwd@@QEAA@PEBVGraph@1@AEBV?$Matrix@N$0?0$00$0A@$0?0$00@Eigen@@NAEBV?$vector@U?$pair@HH@std@@V?$allocator@U?$pair@HH@std@@@2@@std@@@Z
	??0WaterModel@pwd@@QEAA@PEBVGraph@1@NN@Z
	??0WaterModel@pwd@@QEAA@PEBVGraph@1@NNAEBV?$vector@U?$pair@HH@std@@V?$allocator@U?$pair@HH@std@@@2@@std@@@Z
	??0bad_alloc@std@@QEAA@AEBV01@@Z
	??0bad_alloc@std@@QEAA@XZ
	??0bad_array_new_length@std@@QEAA@AEBV01@@Z
	??0bad_array_new_length@std@@QEAA@XZ
	??0bad_cast@std@@QEAA@AEBV01@@Z
	??0bad_cast@std@@QEAA@XZ
	??0exception@std@@QEAA@AEBV01@@Z
	??1?$CompressedStorage@NH@internal@Eigen@@QEAA@XZ
	??1?$DenseStorage@N$0?0$0?0$0?0$0A@@Eigen@@QEAA@XZ
	??1?$DenseStorage@V?$complex@N@std@@$0?0$0?0$00$0A@@Eigen@@QEAA@XZ
	??1?$DenseStorage@V?$complex@N@std@@$0?0$0?0$0?0$0A@@Eigen@@QEAA@XZ
	??1?$EigenSolver@V?$Matrix@N$0?0$0?0$0A@$0?0$0?0@Eigen@@@Eigen@@QEAA@XZ
	??1?$Inverse@V?$PartialPivLU@V?$Matrix@V?$complex@N@std@@$0?0$0?0$0A@$0?0$0?0@Eigen@@@Eigen@@@Eigen@@QEAA@XZ
	??1?$Matrix@N$00$0?0$00$00$0?0@Eigen@@QEAA@XZ
	??1?$Matrix@N$0?0$00$0A@$0?0$00@Eigen@@QEAA@XZ
	??1?$Matrix@N$0?0$0?0$00$0?0$0?0@Eigen@@QEAA@XZ
	??1?$Matrix@N$0?0$0?0$0A@$0?0$0?0@Eigen@@QEAA@XZ
	??1?$Matrix@V?$complex@N@std@@$0?0$00$0A@$0?0$00@Eigen@@QEAA@XZ
	??1?$Matrix@V?$complex@N@std@@$0?0$0?0$0A@$0?0$0?0@Eigen@@QEAA@XZ
	??1?$PartialPivLU@V?$Matrix@V?$complex@N@std@@$0?0$0?0$0A@$0?0$0?0@Eigen@@@Eigen@@QEAA@XZ
	??1?$PermutationMatrix@$0?0$0?0H@Eigen@@QEAA@XZ
	??1?$PlainObjectBase@V?$Matrix@H$0?0$00$0A@$0?0$00@Eigen@@@Eigen@@QEAA@XZ
	??1?$PlainObjectBase@V?$Matrix@N$00$0?0$00$00$0?0@Eigen@@@Eigen@@QEAA@XZ
	??1?$PlainObjectBase@V?$Matrix@N$0?0$00$0A@$0?0$00@Eigen@@@Eigen@@QEAA@XZ
	??1?$PlainObjectBase@V?$Matrix@N$0?0$0?0$00$0?0$0?0@Eigen@@@Eigen@@QEAA@XZ
	??1?$PlainObjectBase@V?$Matrix@N$0?0$0?0$0A@$0?0$02@Eigen@@@Eigen@@QEAA@XZ
	??1?$PlainObjectBase@V?$Matrix@N$0?0$0?0$0A@$0?0$0?0@Eigen@@@Eigen@@QEAA@XZ
	??1?$PlainObjectBase@V?$Matrix@V?$complex@N@std@@$0?0$00$0A@$0?0$00@Eigen@@@Eigen@@QEAA@XZ
	??1?$PlainObjectBase@V?$Matrix@V?$complex@N@std@@$0?0$0?0$0A@$0?0$0?0@Eigen@@@Eigen@@QEAA@XZ
	??1?$Queue@PEAVNode@pwd@@@pwd@@QEAA@XZ
	??1?$RealSchur@V?$Matrix@N$0?0$0?0$0A@$0?0$0?0@Eigen@@@Eigen@@QEAA@XZ
	??1?$SparseMatrix@N$0A@H@Eigen@@QEAA@XZ
	??1?$Transpositions@$0?0$0?0H@Eigen@@QEAA@XZ
	??1?$_Alloc_construct_ptr@V?$allocator@U?$_List_node@U?$pair@HH@std@@PEAX@std@@@std@@@std@@QEAA@XZ
	??1?$_Alloc_construct_ptr@V?$allocator@U?$_List_node@U?$pair@QEBVNode@pwd@@H@std@@PEAX@std@@@std@@@std@@QEAA@XZ
	??1?$_Alloc_construct_ptr@V?$allocator@U?$_List_node@U?$pair@QEBVNode@pwd@@_N@std@@PEAX@std@@@std@@@std@@QEAA@XZ
	??1?$_Hash@V?$_Umap_traits@PEBVNode@pwd@@HV?$_Uhash_compare@PEBVNode@pwd@@U?$hash@PEBVNode@pwd@@@std@@U?$equal_to@PEBVNode@pwd@@@4@@std@@V?$allocator@U?$pair@QEBVNode@pwd@@H@std@@@4@$0A@@std@@@std@@QEAA@XZ
	??1?$_Hash@V?$_Umap_traits@PEBVNode@pwd@@_NV?$_Uhash_compare@PEBVNode@pwd@@U?$hash@PEBVNode@pwd@@@std@@U?$equal_to@PEBVNode@pwd@@@4@@std@@V?$allocator@U?$pair@QEBVNode@pwd@@_N@std@@@4@$0A@@std@@@std@@QEAA@XZ
	??1?$_Hash@V?$_Uset_traits@U?$pair@HH@std@@V?$_Uhash_compare@U?$pair@HH@std@@U?$hash@U?$pair@HH@std@@@2@U?$equal_to@U?$pair@HH@std@@@2@@2@V?$allocator@U?$pair@HH@std@@@2@$0A@@std@@@std@@QEAA@XZ
	??1?$_Hash_vec@V?$allocator@V?$_List_unchecked_const_iterator@V?$_List_val@U?$_List_simple_types@U?$pair@HH@std@@@std@@@std@@U_Iterator_base0@2@@std@@@std@@@std@@QEAA@XZ
	??1?$_Hash_vec@V?$allocator@V?$_List_unchecked_iterator@V?$_List_val@U?$_List_simple_types@U?$pair@QEBVNode@pwd@@H@std@@@std@@@std@@@std@@@std@@@std@@QEAA@XZ
	??1?$_Hash_vec@V?$allocator@V?$_List_unchecked_iterator@V?$_List_val@U?$_List_simple_types@U?$pair@QEBVNode@pwd@@_N@std@@@std@@@std@@@std@@@std@@@std@@QEAA@XZ
	??1?$_List_node_emplace_op2@V?$allocator@U?$_List_node@U?$pair@HH@std@@PEAX@std@@@std@@@std@@QEAA@XZ
	??1?$_List_node_emplace_op2@V?$allocator@U?$_List_node@U?$pair@QEBVNode@pwd@@H@std@@PEAX@std@@@std@@@std@@QEAA@XZ
	??1?$_List_node_emplace_op2@V?$allocator@U?$_List_node@U?$pair@QEBVNode@pwd@@_N@std@@PEAX@std@@@std@@@std@@QEAA@XZ
	??1?$aligned_stack_memory_handler@N@internal@Eigen@@QEAA@XZ
	??1?$aligned_stack_memory_handler@V?$complex@N@std@@@internal@Eigen@@QEAA@XZ
	??1?$basic_filebuf@DU?$char_traits@D@std@@@std@@UEAA@XZ
	??1?$basic_ifstream@DU?$char_traits@D@std@@@std@@UEAA@XZ
	??1?$basic_string@DU?$char_traits@D@std@@V?$allocator@D@2@@std@@QEAA@XZ
	??1?$basic_stringbuf@DU?$char_traits@D@std@@V?$allocator@D@2@@std@@UEAA@XZ
	??1?$basic_stringstream@DU?$char_traits@D@std@@V?$allocator@D@2@@std@@UEAA@XZ
	??1?$evaluator@V?$CwiseUnaryOp@U?$scalar_real_op@V?$complex@N@std@@@internal@Eigen@@$$CBV?$Product@V?$Matrix@V?$complex@N@std@@$0?0$0?0$0A@$0?0$0?0@Eigen@@V?$Matrix@V?$complex@N@std@@$0?0$00$0A@$0?0$00@2@$0A@@3@@Eigen@@@internal@Eigen@@QEAA@XZ
	??1?$gemm_blocking_space@$0A@NN$0?0$02$0?0$03$0A@@internal@Eigen@@QEAA@XZ
	??1?$gemm_blocking_space@$0A@NN$0?0$0?0$0?0$03$0A@@internal@Eigen@@QEAA@XZ
	??1?$gemm_blocking_space@$0A@V?$complex@N@std@@V12@$0?0$0?0$0?0$00$0A@@internal@Eigen@@QEAA@XZ
	??1?$gemm_blocking_space@$0A@V?$complex@N@std@@V12@$0?0$0?0$0?0$03$0A@@internal@Eigen@@QEAA@XZ
	??1?$list@U?$pair@HH@std@@V?$allocator@U?$pair@HH@std@@@2@@std@@QEAA@XZ
	??1?$list@U?$pair@QEBVNode@pwd@@H@std@@V?$allocator@U?$pair@QEBVNode@pwd@@H@std@@@2@@std@@QEAA@XZ
	??1?$list@U?$pair@QEBVNode@pwd@@_N@std@@V?$allocator@U?$pair@QEBVNode@pwd@@_N@std@@@2@@std@@QEAA@XZ
	??1?$scoped_array@N@internal@Eigen@@QEAA@XZ
	??1?$unique_ptr@V_Facet_base@std@@U?$default_delete@V_Facet_base@std@@@2@@std@@QEAA@XZ
	??1?$unordered_map@PEBVNode@pwd@@HU?$hash@PEBVNode@pwd@@@std@@U?$equal_to@PEBVNode@pwd@@@4@V?$allocator@U?$pair@QEBVNode@pwd@@H@std@@@4@@std@@QEAA@XZ
	??1?$unordered_map@PEBVNode@pwd@@_NU?$hash@PEBVNode@pwd@@@std@@U?$equal_to@PEBVNode@pwd@@@4@V?$allocator@U?$pair@QEBVNode@pwd@@_N@std@@@4@@std@@QEAA@XZ
	??1?$unordered_set@U?$pair@HH@std@@U?$hash@U?$pair@HH@std@@@2@U?$equal_to@U?$pair@HH@std@@@2@V?$allocator@U?$pair@HH@std@@@2@@std@@QEAA@XZ
	??1?$vector@PEAVNode@pwd@@V?$allocator@PEAVNode@pwd@@@std@@@std@@QEAA@XZ
	??1?$vector@PEBVNode@pwd@@V?$allocator@PEBVNode@pwd@@@std@@@std@@QEAA@XZ
	??1?$vector@U?$pair@HH@std@@V?$allocator@U?$pair@HH@std@@@2@@std@@QEAA@XZ
	??1AssertFailException@pwd@@UEAA@XZ
	??1BaseException@pwd@@UEAA@XZ
	??1Graph@pwd@@QEAA@XZ
	??1Node@pwd@@AEAA@XZ
	??1NullPointerException@pwd@@UEAA@XZ
	??1WaterModel@pwd@@QEAA@XZ
	??1_Sentry_base@?$basic_istream@DU?$char_traits@D@std@@@std@@QEAA@XZ
	??1_Sentry_base@?$basic_ostream@DU?$char_traits@D@std@@@std@@QEAA@XZ
	??1bad_alloc@std@@UEAA@XZ
	??1bad_array_new_length@std@@UEAA@XZ
	??1bad_cast@std@@UEAA@XZ
	??1exception@std@@UEAA@XZ
	??1locale@std@@QEAA@XZ
	??1sentry@?$basic_istream@DU?$char_traits@D@std@@@std@@QEAA@XZ
	??1sentry@?$basic_ostream@DU?$char_traits@D@std@@@std@@QEAA@XZ
	??4?$basic_string@DU?$char_traits@D@std@@V?$allocator@D@2@@std@@QEAAAEAV01@$$QEAV01@@Z
	??4WaterModel@pwd@@QEAAAEAV01@AEBV01@@Z
	??R?$gebp_kernel@NN_JV?$blas_data_mapper@N_J$0A@$0A@$00@internal@Eigen@@$03$03$0A@$0A@@internal@Eigen@@QEAAXAEBV?$blas_data_mapper@N_J$0A@$0A@$00@12@PEBN1_J22N2222@Z
	??R?$gebp_kernel@V?$complex@N@std@@V12@_JV?$blas_data_mapper@V?$complex@N@std@@_J$0A@$0A@$00@internal@Eigen@@$00$03$0A@$0A@@internal@Eigen@@QEAAXAEBV?$blas_data_mapper@V?$complex@N@std@@_J$0A@$0A@$00@12@PEBV?$complex@N@std@@1_J22V45@2222@Z
	??R?$gemm_pack_lhs@N_JV?$const_blas_data_mapper@N_J$00@internal@Eigen@@$03$01U__m128d@@$00$0A@$0A@@internal@Eigen@@QEAAXPEANAEBV?$const_blas_data_mapper@N_J$00@12@_J222@Z
	??R?$gemm_pack_lhs@N_JV?$const_blas_data_mapper@N_J$0A@@internal@Eigen@@$03$01U__m128d@@$0A@$0A@$0A@@internal@Eigen@@QEAAXPEANAEBV?$const_blas_data_mapper@N_J$0A@@12@_J222@Z
	??R?$gemm_pack_lhs@V?$complex@N@std@@_JV?$const_blas_data_mapper@V?$complex@N@std@@_J$0A@@internal@Eigen@@$00$00UPacket1cd@45@$0A@$0A@$0A@@internal@Eigen@@QEAAXPEAV?$complex@N@std@@AEBV?$const_blas_data_mapper@V?$complex@N@std@@_J$0A@@12@_J222@Z
	??R?$gemm_pack_rhs@N_JV?$const_blas_data_mapper@N_J$0A@@internal@Eigen@@$03$0A@$0A@$0A@@internal@Eigen@@QEAAXPEANAEBV?$const_blas_data_mapper@N_J$0A@@12@_J222@Z
	??R?$gemm_pack_rhs@V?$complex@N@std@@_JV?$blas_data_mapper@V?$complex@N@std@@_J$0A@$0A@$00@internal@Eigen@@$03$0A@$0A@$00@internal@Eigen@@QEAAXPEAV?$complex@N@std@@AEBV?$blas_data_mapper@V?$complex@N@std@@_J$0A@$0A@$00@12@_J222@Z
	??R?$gemm_pack_rhs@V?$complex@N@std@@_JV?$const_blas_data_mapper@V?$complex@N@std@@_J$0A@@internal@Eigen@@$03$0A@$0A@$0A@@internal@Eigen@@QEAAXPEAV?$complex@N@std@@AEBV?$const_blas_data_mapper@V?$complex@N@std@@_J$0A@@12@_J222@Z
	??_0?$complex@N@std@@QEAAAEAV01@AEBV01@@Z
	??_D?$basic_ifstream@DU?$char_traits@D@std@@@std@@QEAAXXZ
	??_D?$basic_stringstream@DU?$char_traits@D@std@@V?$allocator@D@2@@std@@QEAAXXZ
	??_H@YAXPEAX_K1P6APEAX0@Z@Z
	?AddAdjacent@Node@pwd@@QEAAXPEBV12@@Z
	?AddConnection@Graph@pwd@@AEAAXHH@Z
	?AddNode@Graph@pwd@@AEAAXAEBV?$Matrix@N$02$00$0A@$02$00@Eigen@@0N_N@Z
	?Area@Node@pwd@@QEBANXZ
	?Degree@Node@pwd@@QEBAHXZ
	?Direction@Node@pwd@@QEBA?AV?$Matrix@N$02$00$0A@$02$00@Eigen@@XZ
	?Evaluate@WaterModel@pwd@@QEAAXN@Z
	?GetAdjacent@Node@pwd@@QEBAPEBV12@H@Z
	?GetGraph@WaterModel@pwd@@QEBAPEBVGraph@2@XZ
	?GetNode@Graph@pwd@@QEAAPEAVNode@2@H@Z
	?GetNode@Graph@pwd@@QEBAPEBVNode@2@H@Z
	?GetNodeID@Graph@pwd@@QEBAHPEBVNode@2@@Z
	?GetNodes@Graph@pwd@@QEAAAEBV?$vector@PEAVNode@pwd@@V?$allocator@PEAVNode@pwd@@@std@@@std@@XZ
	?GetNodes@Graph@pwd@@QEBA?AV?$vector@PEBVNode@pwd@@V?$allocator@PEBVNode@pwd@@@std@@@std@@XZ
	?Graph@Node@pwd@@QEBAPEBV02@XZ
	?Head@Node@pwd@@QEAAAEAV?$Matrix@N$02$00$0A@$02$00@Eigen@@XZ
	?Head@Node@pwd@@QEBAAEBV?$Matrix@N$02$00$0A@$02$00@Eigen@@XZ
	?Initialize@WaterModel@pwd@@QEAAXAEBV?$Matrix@N$0?0$00$0A@$0?0$00@Eigen@@NAEBV?$vector@U?$pair@HH@std@@V?$allocator@U?$pair@HH@std@@@2@@std@@@Z
	?Initialize@WaterModel@pwd@@QEAAXNN@Z
	?Initialize@WaterModel@pwd@@QEAAXNNAEBV?$vector@U?$pair@HH@std@@V?$allocator@U?$pair@HH@std@@@2@@std@@@Z
	?IsOnLeaf@Node@pwd@@QEBA_NXZ
	?LastEvaluationTime@WaterModel@pwd@@QEBANXZ
	?Length@Node@pwd@@QEBANXZ
	?NumNodes@Graph@pwd@@QEBAHXZ
	?Radius@Node@pwd@@QEBANXZ
	?RecomputeHeadsAndTails@Graph@pwd@@QEAAX_N@Z
	?RemoveAdjacent@Node@pwd@@QEAAXPEBV12@@Z
	?Root@Graph@pwd@@QEAAPEAVNode@2@XZ
	?Root@Graph@pwd@@QEBAPEBVNode@2@XZ
	?Rotation@Node@pwd@@QEBA?AV?$Quaternion@N$0A@@Eigen@@XZ
	?Tail@Node@pwd@@QEAAAEAV?$Matrix@N$02$00$0A@$02$00@Eigen@@XZ
	?Tail@Node@pwd@@QEBAAEBV?$Matrix@N$02$00$0A@$02$00@Eigen@@XZ
	?Volume@Node@pwd@@QEBANXZ
	?Water0@WaterModel@pwd@@QEBAAEBV?$Matrix@N$0?0$00$0A@$0?0$00@Eigen@@XZ
	?Water0@WaterModel@pwd@@QEBANH@Z
	?Water@WaterModel@pwd@@QEBAAEBV?$Matrix@N$0?0$00$0A@$0?0$00@Eigen@@XZ
	?Water@WaterModel@pwd@@QEBANH@Z
	?_Assign_grow@?$_Hash_vec@V?$allocator@V?$_List_unchecked_const_iterator@V?$_List_val@U?$_List_simple_types@U?$pair@HH@std@@@std@@@std@@U_Iterator_base0@2@@std@@@std@@@std@@QEAAX_KV?$_List_unchecked_const_iterator@V?$_List_val@U?$_List_simple_types@U?$pair@HH@std@@@std@@@std@@U_Iterator_base0@2@@2@@Z
	?_Assign_grow@?$_Hash_vec@V?$allocator@V?$_List_unchecked_iterator@V?$_List_val@U?$_List_simple_types@U?$pair@QEBVNode@pwd@@H@std@@@std@@@std@@@std@@@std@@@std@@QEAAX_KV?$_List_unchecked_iterator@V?$_List_val@U?$_List_simple_types@U?$pair@QEBVNode@pwd@@H@std@@@std@@@std@@@2@@Z
	?_Assign_grow@?$_Hash_vec@V?$allocator@V?$_List_unchecked_iterator@V?$_List_val@U?$_List_simple_types@U?$pair@QEBVNode@pwd@@_N@std@@@std@@@std@@@std@@@std@@@std@@QEAAX_KV?$_List_unchecked_iterator@V?$_List_val@U?$_List_simple_types@U?$pair@QEBVNode@pwd@@_N@std@@@std@@@std@@@2@@Z
	?_Endwrite@?$basic_filebuf@DU?$char_traits@D@std@@@std@@IEAA_NXZ
	?_Forced_rehash@?$_Hash@V?$_Umap_traits@PEBVNode@pwd@@HV?$_Uhash_compare@PEBVNode@pwd@@U?$hash@PEBVNode@pwd@@@std@@U?$equal_to@PEBVNode@pwd@@@4@@std@@V?$allocator@U?$pair@QEBVNode@pwd@@H@std@@@4@$0A@@std@@@std@@IEAAX_K@Z
	?_Forced_rehash@?$_Hash@V?$_Umap_traits@PEBVNode@pwd@@_NV?$_Uhash_compare@PEBVNode@pwd@@U?$hash@PEBVNode@pwd@@@std@@U?$equal_to@PEBVNode@pwd@@@4@@std@@V?$allocator@U?$pair@QEBVNode@pwd@@_N@std@@@4@$0A@@std@@@std@@IEAAX_K@Z
	?_Forced_rehash@?$_Hash@V?$_Uset_traits@U?$pair@HH@std@@V?$_Uhash_compare@U?$pair@HH@std@@U?$hash@U?$pair@HH@std@@@2@U?$equal_to@U?$pair@HH@std@@@2@@2@V?$allocator@U?$pair@HH@std@@@2@$0A@@std@@@std@@IEAAX_K@Z
	?_Lock@?$basic_filebuf@DU?$char_traits@D@std@@@std@@UEAAXXZ
	?_Reset_back@?$basic_filebuf@DU?$char_traits@D@std@@@std@@AEAAXXZ
	?_Throw_bad_array_new_length@std@@YAXXZ
	?_Throw_bad_cast@std@@YAXXZ
	?_Unlock@?$basic_filebuf@DU?$char_traits@D@std@@@std@@UEAAXXZ
	?_Xlen_string@std@@YAXXZ
	?_Xlength@?$vector@PEAVNode@pwd@@V?$allocator@PEAVNode@pwd@@@std@@@std@@CAXXZ
	?_Xlength@?$vector@PEBVNode@pwd@@V?$allocator@PEBVNode@pwd@@@std@@@std@@CAXXZ
	?_compute@?$HessenbergDecomposition@V?$Matrix@N$0?0$0?0$0A@$0?0$0?0@Eigen@@@Eigen@@CAXAEAV?$Matrix@N$0?0$0?0$0A@$0?0$0?0@2@AEAV?$Matrix@N$0?0$00$0A@$0?0$00@2@AEAV?$Matrix@N$00$0?0$00$00$0?0@2@@Z
	?allocate@?$JacobiSVD@V?$Matrix@N$01$02$0A@$01$02@Eigen@@$01@Eigen@@AEAAX_J0I@Z
	?allocate@?$allocator@D@std@@QEAAPEAD_K@Z
	?assign@?$basic_string@DU?$char_traits@D@std@@V?$allocator@D@2@@std@@QEAAAEAV12@QEBD_K@Z
	?blocked_lu@?$partial_lu_impl@V?$complex@N@std@@$0A@H$0?0@internal@Eigen@@SA_J_J0PEAV?$complex@N@std@@0PEAHAEAH0@Z
	?close@?$basic_filebuf@DU?$char_traits@D@std@@@std@@QEAAPEAV12@XZ
	?compute@?$JacobiSVD@V?$Matrix@N$01$02$0A@$01$02@Eigen@@$01@Eigen@@QEAAAEAV12@AEBV?$Matrix@N$01$02$0A@$01$02@2@I@Z
	?compute@?$PartialPivLU@V?$Matrix@V?$complex@N@std@@$0?0$0?0$0A@$0?0$0?0@Eigen@@@Eigen@@IEAAXXZ
	?computeInPlace@?$ColPivHouseholderQR@V?$Matrix@N$02$01$0A@$02$01@Eigen@@@Eigen@@IEAAXXZ
	?computeShift@?$RealSchur@V?$Matrix@N$0?0$0?0$0A@$0?0$0?0@Eigen@@@Eigen@@AEAAX_J0AEANAEAV?$Matrix@N$02$00$0A@$02$00@2@@Z
	?computeU@?$SVDBase@V?$JacobiSVD@V?$Matrix@N$01$02$0A@$01$02@Eigen@@$01@Eigen@@@Eigen@@QEBA_NXZ
	?computeV@?$SVDBase@V?$JacobiSVD@V?$Matrix@N$01$02$0A@$01$02@Eigen@@$01@Eigen@@@Eigen@@QEBA_NXZ
	?deallocate@?$allocator@D@std@@QEAAXQEAD_K@Z
	?deallocate@?$allocator@PEAVNode@pwd@@@std@@QEAAXQEAPEAVNode@pwd@@_K@Z
	?deallocate@?$allocator@PEBVNode@pwd@@@std@@QEAAXQEAPEBVNode@pwd@@_K@Z
	?doComputeEigenvectors@?$EigenSolver@V?$Matrix@N$0?0$0?0$0A@$0?0$0?0@Eigen@@@Eigen@@AEAAXXZ
	?eigenvectors@?$EigenSolver@V?$Matrix@N$0?0$0?0$0A@$0?0$0?0@Eigen@@@Eigen@@QEBA?AV?$Matrix@V?$complex@N@std@@$0?0$0?0$0A@$0?0$0?0@2@XZ
	?householderQ@?$ColPivHouseholderQR@V?$Matrix@N$02$01$0A@$02$01@Eigen@@@Eigen@@QEBA?AV?$HouseholderSequence@V?$Matrix@N$02$01$0A@$02$01@Eigen@@V?$Matrix@N$01$00$0A@$01$00@2@$00@2@XZ
	?imbue@?$basic_filebuf@DU?$char_traits@D@std@@@std@@MEAAXAEBVlocale@2@@Z
	?makeGivens@?$JacobiRotation@N@Eigen@@IEAAXAEBN0PEANUfalse_type@internal@2@@Z
	?makeGivens@?$JacobiRotation@N@Eigen@@QEAAXAEBN0PEAN@Z
	?makeHouseholderInPlace@?$MatrixBase@V?$Block@V?$Block@V?$Matrix@N$02$01$0A@$02$01@Eigen@@$02$00$00@Eigen@@$0?0$00$0A@@Eigen@@@Eigen@@QEAAXAEAN0@Z
	?makeHouseholderInPlace@?$MatrixBase@V?$Block@V?$Block@V?$Matrix@N$0?0$0?0$0A@$0?0$0?0@Eigen@@$0?0$00$00@Eigen@@$0?0$00$0A@@Eigen@@@Eigen@@QEAAXAEAN0@Z
	?makeJacobi@?$JacobiRotation@N@Eigen@@QEAA_NAEBN00@Z
	?noalias@?$MatrixBase@V?$Block@V?$Block@V?$Matrix@N$02$01$0A@$02$01@Eigen@@$0?0$0?0$0A@@Eigen@@$0?0$0?0$0A@@Eigen@@@Eigen@@QEAA?AV?$NoAlias@V?$Block@V?$Block@V?$Matrix@N$02$01$0A@$02$01@Eigen@@$0?0$0?0$0A@@Eigen@@$0?0$0?0$0A@@Eigen@@VMatrixBase@2@@2@XZ
	?noalias@?$MatrixBase@V?$Block@V?$Block@V?$Matrix@N$02$02$0A@$02$02@Eigen@@$0?0$0?0$0A@@Eigen@@$0?0$0?0$0A@@Eigen@@@Eigen@@QEAA?AV?$NoAlias@V?$Block@V?$Block@V?$Matrix@N$02$02$0A@$02$02@Eigen@@$0?0$0?0$0A@@Eigen@@$0?0$0?0$0A@@Eigen@@VMatrixBase@2@@2@XZ
	?noalias@?$MatrixBase@V?$Block@V?$Block@V?$Matrix@N$0?0$0?0$00$0?0$0?0@Eigen@@$00$0?0$00@Eigen@@$00$0?0$0A@@Eigen@@@Eigen@@QEAA?AV?$NoAlias@V?$Block@V?$Block@V?$Matrix@N$0?0$0?0$00$0?0$0?0@Eigen@@$00$0?0$00@Eigen@@$00$0?0$0A@@Eigen@@VMatrixBase@2@@2@XZ
	?noalias@?$MatrixBase@V?$Block@V?$Block@V?$Matrix@N$0?0$0?0$0A@$0?0$0?0@Eigen@@$0?0$0?0$00@Eigen@@$0?0$0?0$0A@@Eigen@@@Eigen@@QEAA?AV?$NoAlias@V?$Block@V?$Block@V?$Matrix@N$0?0$0?0$0A@$0?0$0?0@Eigen@@$0?0$0?0$00@Eigen@@$0?0$0?0$0A@@Eigen@@VMatrixBase@2@@2@XZ
	?noalias@?$MatrixBase@V?$Block@V?$Block@V?$Matrix@N$0?0$0?0$0A@$0?0$0?0@Eigen@@$0?0$0?0$0A@@Eigen@@$00$0?0$0A@@Eigen@@@Eigen@@QEAA?AV?$NoAlias@V?$Block@V?$Block@V?$Matrix@N$0?0$0?0$0A@$0?0$0?0@Eigen@@$0?0$0?0$0A@@Eigen@@$00$0?0$0A@@Eigen@@VMatrixBase@2@@2@XZ
	?noalias@?$MatrixBase@V?$Block@V?$Block@V?$Matrix@N$0?0$0?0$0A@$0?0$0?0@Eigen@@$0?0$0?0$0A@@Eigen@@$01$0?0$0A@@Eigen@@@Eigen@@QEAA?AV?$NoAlias@V?$Block@V?$Block@V?$Matrix@N$0?0$0?0$0A@$0?0$0?0@Eigen@@$0?0$0?0$0A@@Eigen@@$01$0?0$0A@@Eigen@@VMatrixBase@2@@2@XZ
	?noalias@?$MatrixBase@V?$Block@V?$Block@V?$Matrix@N$0?0$0?0$0A@$0?0$0?0@Eigen@@$0?0$0?0$0A@@Eigen@@$0?0$00$0A@@Eigen@@@Eigen@@QEAA?AV?$NoAlias@V?$Block@V?$Block@V?$Matrix@N$0?0$0?0$0A@$0?0$0?0@Eigen@@$0?0$0?0$0A@@Eigen@@$0?0$00$0A@@Eigen@@VMatrixBase@2@@2@XZ
	?noalias@?$MatrixBase@V?$Block@V?$Block@V?$Matrix@N$0?0$0?0$0A@$0?0$0?0@Eigen@@$0?0$0?0$0A@@Eigen@@$0?0$01$0A@@Eigen@@@Eigen@@QEAA?AV?$NoAlias@V?$Block@V?$Block@V?$Matrix@N$0?0$0?0$0A@$0?0$0?0@Eigen@@$0?0$0?0$0A@@Eigen@@$0?0$01$0A@@Eigen@@VMatrixBase@2@@2@XZ
	?noalias@?$MatrixBase@V?$Block@V?$Block@V?$Matrix@N$0?0$0?0$0A@$0?0$0?0@Eigen@@$0?0$0?0$0A@@Eigen@@$0?0$0?0$0A@@Eigen@@@Eigen@@QEAA?AV?$NoAlias@V?$Block@V?$Block@V?$Matrix@N$0?0$0?0$0A@$0?0$0?0@Eigen@@$0?0$0?0$0A@@Eigen@@$0?0$0?0$0A@@Eigen@@VMatrixBase@2@@2@XZ
	?noalias@?$MatrixBase@V?$Block@V?$Matrix@N$02$02$0A@$02$02@Eigen@@$0?0$0?0$0A@@Eigen@@@Eigen@@QEAA?AV?$NoAlias@V?$Block@V?$Matrix@N$02$02$0A@$02$02@Eigen@@$0?0$0?0$0A@@Eigen@@VMatrixBase@2@@2@XZ
	?noalias@?$MatrixBase@V?$Block@V?$Matrix@N$0?0$0?0$0A@$0?0$0?0@Eigen@@$0?0$0?0$0A@@Eigen@@@Eigen@@QEAA?AV?$NoAlias@V?$Block@V?$Matrix@N$0?0$0?0$0A@$0?0$0?0@Eigen@@$0?0$0?0$0A@@Eigen@@VMatrixBase@2@@2@XZ
	?noalias@?$MatrixBase@V?$Block@V?$Ref@V?$Matrix@V?$complex@N@std@@$0?0$0?0$0A@$0?0$0?0@Eigen@@$0A@V?$OuterStride@$0?0@2@@Eigen@@$0?0$0?0$0A@@Eigen@@@Eigen@@QEAA?AV?$NoAlias@V?$Block@V?$Ref@V?$Matrix@V?$complex@N@std@@$0?0$0?0$0A@$0?0$0?0@Eigen@@$0A@V?$OuterStride@$0?0@2@@Eigen@@$0?0$0?0$0A@@Eigen@@VMatrixBase@2@@2@XZ
	?noalias@?$MatrixBase@V?$Map@V?$Matrix@N$00$0?0$00$00$01@Eigen@@$0A@V?$Stride@$0A@$0A@@2@@Eigen@@@Eigen@@QEAA?AV?$NoAlias@V?$Map@V?$Matrix@N$00$0?0$00$00$01@Eigen@@$0A@V?$Stride@$0A@$0A@@2@@Eigen@@VMatrixBase@2@@2@XZ
	?noalias@?$MatrixBase@V?$Map@V?$Matrix@N$00$0?0$00$00$02@Eigen@@$0A@V?$Stride@$0A@$0A@@2@@Eigen@@@Eigen@@QEAA?AV?$NoAlias@V?$Map@V?$Matrix@N$00$0?0$00$00$02@Eigen@@$0A@V?$Stride@$0A@$0A@@2@@Eigen@@VMatrixBase@2@@2@XZ
	?noalias@?$MatrixBase@V?$Map@V?$Matrix@N$00$0?0$00$00$0?0@Eigen@@$0A@V?$Stride@$0A@$0A@@2@@Eigen@@@Eigen@@QEAA?AV?$NoAlias@V?$Map@V?$Matrix@N$00$0?0$00$00$0?0@Eigen@@$0A@V?$Stride@$0A@$0A@@2@@Eigen@@VMatrixBase@2@@2@XZ
	?noalias@?$MatrixBase@V?$Map@V?$Matrix@N$0?0$00$0A@$02$00@Eigen@@$0A@V?$Stride@$0A@$0A@@2@@Eigen@@@Eigen@@QEAA?AV?$NoAlias@V?$Map@V?$Matrix@N$0?0$00$0A@$02$00@Eigen@@$0A@V?$Stride@$0A@$0A@@2@@Eigen@@VMatrixBase@2@@2@XZ
	?noalias@?$MatrixBase@V?$Map@V?$Matrix@N$0?0$00$0A@$0?0$00@Eigen@@$0A@V?$Stride@$0A@$0A@@2@@Eigen@@@Eigen@@QEAA?AV?$NoAlias@V?$Map@V?$Matrix@N$0?0$00$0A@$0?0$00@Eigen@@$0A@V?$Stride@$0A@$0A@@2@@Eigen@@VMatrixBase@2@@2@XZ
	?noalias@?$MatrixBase@V?$Matrix@N$0?0$00$0A@$0?0$00@Eigen@@@Eigen@@QEAA?AV?$NoAlias@V?$Matrix@N$0?0$00$0A@$0?0$00@Eigen@@VMatrixBase@2@@2@XZ
	?noalias@?$MatrixBase@V?$Ref@V?$Matrix@V?$complex@N@std@@$0?0$0?0$0A@$0?0$0?0@Eigen@@$0A@V?$OuterStride@$0?0@2@@Eigen@@@Eigen@@QEAA?AV?$NoAlias@V?$Ref@V?$Matrix@V?$complex@N@std@@$0?0$0?0$0A@$0?0$0?0@Eigen@@$0A@V?$OuterStride@$0?0@2@@Eigen@@VMatrixBase@2@@2@XZ
	?overflow@?$basic_filebuf@DU?$char_traits@D@std@@@std@@MEAAHH@Z
	?overflow@?$basic_stringbuf@DU?$char_traits@D@std@@V?$allocator@D@2@@std@@MEAAHH@Z
	?pbackfail@?$basic_filebuf@DU?$char_traits@D@std@@@std@@MEAAHH@Z
	?pbackfail@?$basic_stringbuf@DU?$char_traits@D@std@@V?$allocator@D@2@@std@@MEAAHH@Z
	?performFrancisQRStep@?$RealSchur@V?$Matrix@N$0?0$0?0$0A@$0?0$0?0@Eigen@@@Eigen@@AEAAX_J00_NAEBV?$Matrix@N$02$00$0A@$02$00@2@PEAN@Z
	?queryCacheSizes_intel@internal@Eigen@@YAXAEAH00H@Z
	?queryCacheSizes_intel_codes@internal@Eigen@@YAXAEAH00@Z
	?reallocate@?$CompressedStorage@NH@internal@Eigen@@IEAAX_J@Z
	?resize@?$DenseStorage@N$0?0$0?0$0?0$00@Eigen@@QEAAX_J00@Z
	?resize@?$DenseStorage@N$0?0$0?0$0?0$0A@@Eigen@@QEAAX_J00@Z
	?resize@?$DenseStorage@V?$complex@N@std@@$0?0$0?0$0?0$0A@@Eigen@@QEAAX_J00@Z
	?resize@?$PlainObjectBase@V?$Matrix@H$0?0$00$0A@$0?0$00@Eigen@@@Eigen@@QEAAX_J@Z
	?resize@?$PlainObjectBase@V?$Matrix@N$0?0$00$0A@$0?0$00@Eigen@@@Eigen@@QEAAX_J@Z
	?run@?$Assignment@V?$Matrix@N$0?0$0?0$0A@$0?0$0?0@Eigen@@V?$SparseMatrix@N$0A@H@2@U?$sub_assign_op@NN@internal@2@USparse2Dense@52@X@internal@Eigen@@SAXAEAV?$Matrix@N$0?0$0?0$0A@$0?0$0?0@3@AEBV?$SparseMatrix@N$0A@H@3@AEBU?$sub_assign_op@NN@23@@Z
	?run@?$Assignment@V?$Matrix@V?$complex@N@std@@$0?0$0?0$0A@$0?0$0?0@Eigen@@V?$Inverse@V?$Matrix@V?$complex@N@std@@$0?0$0?0$0A@$0?0$0?0@Eigen@@@2@U?$assign_op@V?$complex@N@std@@V12@@internal@2@UDense2Dense@52@X@internal@Eigen@@SAXAEAV?$Matrix@V?$complex@N@std@@$0?0$0?0$0A@$0?0$0?0@3@AEBV?$Inverse@V?$Matrix@V?$complex@N@std@@$0?0$0?0$0A@$0?0$0?0@Eigen@@@3@AEBU?$assign_op@V?$complex@N@std@@V12@@23@@Z
	?run@?$apply_rotation_in_the_plane_selector@NN$0?0$0A@$0A@@internal@Eigen@@SAXPEAN_J011NN@Z
	?run@?$compute_inverse@V?$Matrix@V?$complex@N@std@@$0?0$0?0$0A@$0?0$0?0@Eigen@@V12@$0?0@internal@Eigen@@SAXAEBV?$Matrix@V?$complex@N@std@@$0?0$0?0$0A@$0?0$0?0@3@AEAV43@@Z
	?run@?$general_matrix_matrix_product@_JV?$complex@N@std@@$0A@$0A@V12@$0A@$0A@$0A@$00@internal@Eigen@@SAX_J00PEBV?$complex@N@std@@010PEAV45@00V45@AEAV?$level3_blocking@V?$complex@N@std@@V12@@23@PEAU?$GemmParallelInfo@_J@23@@Z
	?run@?$general_matrix_vector_product@_JNV?$const_blas_data_mapper@N_J$00@internal@Eigen@@$00$0A@NV123@$0A@$00@internal@Eigen@@SAX_J0AEBV?$const_blas_data_mapper@N_J$00@23@1PEAN0N@Z
	?run@?$general_matrix_vector_product@_JNV?$const_blas_data_mapper@N_J$00@internal@Eigen@@$00$0A@NV123@$0A@$0A@@internal@Eigen@@SAX_J0AEBV?$const_blas_data_mapper@N_J$00@23@1PEAN0N@Z
	?run@?$general_matrix_vector_product@_JNV?$const_blas_data_mapper@N_J$00@internal@Eigen@@$00$0A@NV?$const_blas_data_mapper@N_J$0A@@23@$0A@$0A@@internal@Eigen@@SAX_J0AEBV?$const_blas_data_mapper@N_J$00@23@AEBV?$const_blas_data_mapper@N_J$0A@@23@PEAN0N@Z
	?run@?$general_matrix_vector_product@_JNV?$const_blas_data_mapper@N_J$0A@@internal@Eigen@@$0A@$0A@NV?$const_blas_data_mapper@N_J$00@23@$0A@$0A@@internal@Eigen@@SAX_J0AEBV?$const_blas_data_mapper@N_J$0A@@23@AEBV?$const_blas_data_mapper@N_J$00@23@PEAN0N@Z
	?run@?$general_matrix_vector_product@_JV?$complex@N@std@@V?$const_blas_data_mapper@V?$complex@N@std@@_J$00@internal@Eigen@@$00$0A@V12@V?$const_blas_data_mapper@V?$complex@N@std@@_J$0A@@45@$0A@$0A@@internal@Eigen@@SAX_J0AEBV?$const_blas_data_mapper@V?$complex@N@std@@_J$00@23@AEBV?$const_blas_data_mapper@V?$complex@N@std@@_J$0A@@23@PEAV?$complex@N@std@@0V67@@Z
	?run@?$general_matrix_vector_product@_JV?$complex@N@std@@V?$const_blas_data_mapper@V?$complex@N@std@@_J$0A@@internal@Eigen@@$0A@$0A@NV?$const_blas_data_mapper@N_J$00@45@$0A@$0A@@internal@Eigen@@SAX_J0AEBV?$const_blas_data_mapper@V?$complex@N@std@@_J$0A@@23@AEBV?$const_blas_data_mapper@N_J$00@23@PEAV?$complex@N@std@@0N@Z
	?run@?$general_matrix_vector_product@_JV?$complex@N@std@@V?$const_blas_data_mapper@V?$complex@N@std@@_J$0A@@internal@Eigen@@$0A@$0A@V12@V?$const_blas_data_mapper@V?$complex@N@std@@_J$00@45@$0A@$0A@@internal@Eigen@@SAX_J0AEBV?$const_blas_data_mapper@V?$complex@N@std@@_J$0A@@23@AEBV?$const_blas_data_mapper@V?$complex@N@std@@_J$00@23@PEAV?$complex@N@std@@0V67@@Z
	?run@?$product_triangular_matrix_matrix@N_J$00$00$0A@$0A@$0A@$0A@$0A@$00$0A@@internal@Eigen@@SAX_J00PEBN010PEAN00AEBNAEAV?$level3_blocking@NN@23@@Z
	?run@?$product_triangular_matrix_matrix@N_J$01$00$00$0A@$0A@$0A@$0A@$00$0A@@internal@Eigen@@SAX_J00PEBN010PEAN00AEBNAEAV?$level3_blocking@NN@23@@Z
	?run@?$product_triangular_matrix_matrix@N_J$04$00$0A@$0A@$0A@$0A@$0A@$00$0A@@internal@Eigen@@SAX_J00PEBN010PEAN00AEBNAEAV?$level3_blocking@NN@23@@Z
	?run@?$product_triangular_matrix_matrix@N_J$05$00$00$0A@$0A@$0A@$0A@$00$0A@@internal@Eigen@@SAX_J00PEBN010PEAN00AEBNAEAV?$level3_blocking@NN@23@@Z
	?run@?$triangular_assignment_loop@V?$triangular_dense_assignment_kernel@$00$0A@$0A@U?$evaluator@V?$TriangularView@V?$Block@V?$Matrix@N$0?0$0?0$0A@$0?0$0?0@Eigen@@$0?0$0?0$0A@@Eigen@@$00@Eigen@@@internal@Eigen@@U?$evaluator@V?$CwiseNullaryOp@U?$scalar_constant_op@N@internal@Eigen@@V?$Matrix@N$0?0$0?0$0A@$0?0$0?0@3@@Eigen@@@23@U?$assign_op@NN@23@$0A@@internal@Eigen@@$00$0?0$0A@@internal@Eigen@@SAXAEAV?$triangular_dense_assignment_kernel@$00$0A@$0A@U?$evaluator@V?$TriangularView@V?$Block@V?$Matrix@N$0?0$0?0$0A@$0?0$0?0@Eigen@@$0?0$0?0$0A@@Eigen@@$00@Eigen@@@internal@Eigen@@U?$evaluator@V?$CwiseNullaryOp@U?$scalar_constant_op@N@internal@Eigen@@V?$Matrix@N$0?0$0?0$0A@$0?0$0?0@3@@Eigen@@@23@U?$assign_op@NN@23@$0A@@23@@Z
	?run@?$triangular_assignment_loop@V?$triangular_dense_assignment_kernel@$01$07$0A@U?$evaluator@V?$TriangularView@V?$Matrix@N$0?0$0?0$0A@$0?0$0?0@Eigen@@$09@Eigen@@@internal@Eigen@@U?$evaluator@V?$CwiseNullaryOp@U?$scalar_constant_op@N@internal@Eigen@@V?$Matrix@N$0?0$0?0$0A@$0?0$0?0@3@@Eigen@@@23@U?$assign_op@NN@23@$0A@@internal@Eigen@@$09$0?0$0A@@internal@Eigen@@SAXAEAV?$triangular_dense_assignment_kernel@$01$07$0A@U?$evaluator@V?$TriangularView@V?$Matrix@N$0?0$0?0$0A@$0?0$0?0@Eigen@@$09@Eigen@@@internal@Eigen@@U?$evaluator@V?$CwiseNullaryOp@U?$scalar_constant_op@N@internal@Eigen@@V?$Matrix@N$0?0$0?0$0A@$0?0$0?0@3@@Eigen@@@23@U?$assign_op@NN@23@$0A@@23@@Z
	?run@?$triangular_matrix_vector_product@_J$05N$0A@N$0A@$00$0A@@internal@Eigen@@SAX_J0PEBN010PEAN0AEBN@Z
	?run@?$triangular_solve_matrix@V?$complex@N@std@@_J$00$01$0A@$0A@$0A@$00@internal@Eigen@@SAX_J0PEBV?$complex@N@std@@0PEAV45@00AEAV?$level3_blocking@V?$complex@N@std@@V12@@23@@Z
	?run@?$triangular_solve_matrix@V?$complex@N@std@@_J$00$04$0A@$0A@$0A@$00@internal@Eigen@@SAX_J0PEBV?$complex@N@std@@0PEAV45@00AEAV?$level3_blocking@V?$complex@N@std@@V12@@23@@Z
	?seekoff@?$basic_filebuf@DU?$char_traits@D@std@@@std@@MEAA?AV?$fpos@U_Mbstatet@@@2@_JHH@Z
	?seekoff@?$basic_stringbuf@DU?$char_traits@D@std@@V?$allocator@D@2@@std@@MEAA?AV?$fpos@U_Mbstatet@@@2@_JHH@Z
	?seekpos@?$basic_filebuf@DU?$char_traits@D@std@@@std@@MEAA?AV?$fpos@U_Mbstatet@@@2@V32@H@Z
	?seekpos@?$basic_stringbuf@DU?$char_traits@D@std@@V?$allocator@D@2@@std@@MEAA?AV?$fpos@U_Mbstatet@@@2@V32@H@Z
	?setbuf@?$basic_filebuf@DU?$char_traits@D@std@@@std@@MEAAPEAV?$basic_streambuf@DU?$char_traits@D@std@@@2@PEAD_J@Z
	?splitOffTwoRows@?$RealSchur@V?$Matrix@N$0?0$0?0$0A@$0?0$0?0@Eigen@@@Eigen@@AEAAX_J_NAEBN@Z
	?sync@?$basic_filebuf@DU?$char_traits@D@std@@@std@@MEAAHXZ
	?throw_std_bad_alloc@internal@Eigen@@YAXXZ
	?uflow@?$basic_filebuf@DU?$char_traits@D@std@@@std@@MEAAHXZ
	?unblocked_lu@?$partial_lu_impl@V?$complex@N@std@@$0A@H$0?0@internal@Eigen@@SA_JAEAV?$Ref@V?$Matrix@V?$complex@N@std@@$0?0$0?0$0A@$0?0$0?0@Eigen@@$0A@V?$OuterStride@$0?0@2@@3@PEAHAEAH@Z
	?underflow@?$basic_filebuf@DU?$char_traits@D@std@@@std@@MEAAHXZ
	?underflow@?$basic_stringbuf@DU?$char_traits@D@std@@V?$allocator@D@2@@std@@MEAAHXZ
	?what@BaseException@pwd@@UEBAPEBDXZ
	?what@exception@std@@UEBAPEBDXZ
	?xsgetn@?$basic_filebuf@DU?$char_traits@D@std@@@std@@MEAA_JPEAD_J@Z
	?xsputn@?$basic_filebuf@DU?$char_traits@D@std@@@std@@MEAA_JPEBD_J@Z
	__local_stdio_scanf_options
	sscanf
